
attacker:     file format elf64-x86-64


Disassembly of section .init:

0000000000401000 <_init>:
  401000:	f3 0f 1e fa          	endbr64 
  401004:	48 83 ec 08          	sub    $0x8,%rsp
  401008:	48 8b 05 e1 3f 00 00 	mov    0x3fe1(%rip),%rax        # 404ff0 <__gmon_start__>
  40100f:	48 85 c0             	test   %rax,%rax
  401012:	74 02                	je     401016 <_init+0x16>
  401014:	ff d0                	callq  *%rax
  401016:	48 83 c4 08          	add    $0x8,%rsp
  40101a:	c3                   	retq   

Disassembly of section .plt:

0000000000401020 <.plt>:
  401020:	ff 35 e2 3f 00 00    	pushq  0x3fe2(%rip)        # 405008 <_GLOBAL_OFFSET_TABLE_+0x8>
  401026:	ff 25 e4 3f 00 00    	jmpq   *0x3fe4(%rip)        # 405010 <_GLOBAL_OFFSET_TABLE_+0x10>
  40102c:	0f 1f 40 00          	nopl   0x0(%rax)

0000000000401030 <free@plt>:
  401030:	ff 25 e2 3f 00 00    	jmpq   *0x3fe2(%rip)        # 405018 <free@GLIBC_2.2.5>
  401036:	68 00 00 00 00       	pushq  $0x0
  40103b:	e9 e0 ff ff ff       	jmpq   401020 <.plt>

0000000000401040 <fclose@plt>:
  401040:	ff 25 da 3f 00 00    	jmpq   *0x3fda(%rip)        # 405020 <fclose@GLIBC_2.2.5>
  401046:	68 01 00 00 00       	pushq  $0x1
  40104b:	e9 d0 ff ff ff       	jmpq   401020 <.plt>

0000000000401050 <__assert_fail@plt>:
  401050:	ff 25 d2 3f 00 00    	jmpq   *0x3fd2(%rip)        # 405028 <__assert_fail@GLIBC_2.2.5>
  401056:	68 02 00 00 00       	pushq  $0x2
  40105b:	e9 c0 ff ff ff       	jmpq   401020 <.plt>

0000000000401060 <malloc@plt>:
  401060:	ff 25 ca 3f 00 00    	jmpq   *0x3fca(%rip)        # 405030 <malloc@GLIBC_2.2.5>
  401066:	68 03 00 00 00       	pushq  $0x3
  40106b:	e9 b0 ff ff ff       	jmpq   401020 <.plt>

0000000000401070 <fopen@plt>:
  401070:	ff 25 c2 3f 00 00    	jmpq   *0x3fc2(%rip)        # 405038 <fopen@GLIBC_2.2.5>
  401076:	68 04 00 00 00       	pushq  $0x4
  40107b:	e9 a0 ff ff ff       	jmpq   401020 <.plt>

0000000000401080 <fwrite@plt>:
  401080:	ff 25 ba 3f 00 00    	jmpq   *0x3fba(%rip)        # 405040 <fwrite@GLIBC_2.2.5>
  401086:	68 05 00 00 00       	pushq  $0x5
  40108b:	e9 90 ff ff ff       	jmpq   401020 <.plt>

Disassembly of section .text:

0000000000401090 <main>:
  401090:	41 54                	push   %r12
  401092:	bf 00 00 08 00       	mov    $0x80000,%edi
  401097:	55                   	push   %rbp
  401098:	53                   	push   %rbx
  401099:	48 83 ec 10          	sub    $0x10,%rsp
  40109d:	e8 be ff ff ff       	callq  401060 <malloc@plt>
  4010a2:	48 85 c0             	test   %rax,%rax
  4010a5:	0f 84 8e 18 00 00    	je     402939 <main+0x18a9>
  4010ab:	48 89 c5             	mov    %rax,%rbp
  4010ae:	48 89 c7             	mov    %rax,%rdi
  4010b1:	48 8d 98 00 00 08 00 	lea    0x80000(%rax),%rbx
  4010b8:	0f 1f 84 00 00 00 00 	nopl   0x0(%rax,%rax,1)
  4010bf:	00 
  4010c0:	0f 01 f9             	rdtscp 
  4010c3:	48 89 c6             	mov    %rax,%rsi
  4010c6:	48 c1 e2 20          	shl    $0x20,%rdx
  4010ca:	89 4c 24 0c          	mov    %ecx,0xc(%rsp)
  4010ce:	48 09 d6             	or     %rdx,%rsi
  4010d1:	4d 89 c1             	mov    %r8,%r9
  4010d4:	4d 89 ca             	mov    %r9,%r10
  4010d7:	4d 89 d3             	mov    %r10,%r11
  4010da:	4d 89 d8             	mov    %r11,%r8
  4010dd:	4d 89 c1             	mov    %r8,%r9
  4010e0:	4d 89 ca             	mov    %r9,%r10
  4010e3:	4d 89 d3             	mov    %r10,%r11
  4010e6:	4d 89 d8             	mov    %r11,%r8
  4010e9:	4d 89 c1             	mov    %r8,%r9
  4010ec:	4d 89 ca             	mov    %r9,%r10
  4010ef:	4d 89 d3             	mov    %r10,%r11
  4010f2:	4d 89 d8             	mov    %r11,%r8
  4010f5:	4d 89 c1             	mov    %r8,%r9
  4010f8:	4d 89 ca             	mov    %r9,%r10
  4010fb:	4d 89 d3             	mov    %r10,%r11
  4010fe:	4d 89 d8             	mov    %r11,%r8
  401101:	4d 89 c1             	mov    %r8,%r9
  401104:	4d 89 ca             	mov    %r9,%r10
  401107:	4d 89 d3             	mov    %r10,%r11
  40110a:	4d 89 d8             	mov    %r11,%r8
  40110d:	4d 89 c1             	mov    %r8,%r9
  401110:	4d 89 ca             	mov    %r9,%r10
  401113:	4d 89 d3             	mov    %r10,%r11
  401116:	4d 89 d8             	mov    %r11,%r8
  401119:	4d 89 c1             	mov    %r8,%r9
  40111c:	4d 89 ca             	mov    %r9,%r10
  40111f:	4d 89 d3             	mov    %r10,%r11
  401122:	4d 89 d8             	mov    %r11,%r8
  401125:	4d 89 c1             	mov    %r8,%r9
  401128:	4d 89 ca             	mov    %r9,%r10
  40112b:	4d 89 d3             	mov    %r10,%r11
  40112e:	4d 89 d8             	mov    %r11,%r8
  401131:	4d 89 c1             	mov    %r8,%r9
  401134:	4d 89 ca             	mov    %r9,%r10
  401137:	4d 89 d3             	mov    %r10,%r11
  40113a:	4d 89 d8             	mov    %r11,%r8
  40113d:	4d 89 c1             	mov    %r8,%r9
  401140:	4d 89 ca             	mov    %r9,%r10
  401143:	4d 89 d3             	mov    %r10,%r11
  401146:	4d 89 d8             	mov    %r11,%r8
  401149:	4d 89 c1             	mov    %r8,%r9
  40114c:	4d 89 ca             	mov    %r9,%r10
  40114f:	4d 89 d3             	mov    %r10,%r11
  401152:	4d 89 d8             	mov    %r11,%r8
  401155:	4d 89 c1             	mov    %r8,%r9
  401158:	4d 89 ca             	mov    %r9,%r10
  40115b:	4d 89 d3             	mov    %r10,%r11
  40115e:	4d 89 d8             	mov    %r11,%r8
  401161:	4d 89 c1             	mov    %r8,%r9
  401164:	4d 89 ca             	mov    %r9,%r10
  401167:	4d 89 d3             	mov    %r10,%r11
  40116a:	4d 89 d8             	mov    %r11,%r8
  40116d:	4d 89 c1             	mov    %r8,%r9
  401170:	4d 89 ca             	mov    %r9,%r10
  401173:	4d 89 d3             	mov    %r10,%r11
  401176:	4d 89 d8             	mov    %r11,%r8
  401179:	4d 89 c1             	mov    %r8,%r9
  40117c:	4d 89 ca             	mov    %r9,%r10
  40117f:	4d 89 d3             	mov    %r10,%r11
  401182:	4d 89 d8             	mov    %r11,%r8
  401185:	4d 89 c1             	mov    %r8,%r9
  401188:	4d 89 ca             	mov    %r9,%r10
  40118b:	4d 89 d3             	mov    %r10,%r11
  40118e:	4d 89 d8             	mov    %r11,%r8
  401191:	4d 89 c1             	mov    %r8,%r9
  401194:	4d 89 ca             	mov    %r9,%r10
  401197:	4d 89 d3             	mov    %r10,%r11
  40119a:	4d 89 d8             	mov    %r11,%r8
  40119d:	4d 89 c1             	mov    %r8,%r9
  4011a0:	4d 89 ca             	mov    %r9,%r10
  4011a3:	4d 89 d3             	mov    %r10,%r11
  4011a6:	4d 89 d8             	mov    %r11,%r8
  4011a9:	4d 89 c1             	mov    %r8,%r9
  4011ac:	4d 89 ca             	mov    %r9,%r10
  4011af:	4d 89 d3             	mov    %r10,%r11
  4011b2:	4d 89 d8             	mov    %r11,%r8
  4011b5:	4d 89 c1             	mov    %r8,%r9
  4011b8:	4d 89 ca             	mov    %r9,%r10
  4011bb:	4d 89 d3             	mov    %r10,%r11
  4011be:	4d 89 d8             	mov    %r11,%r8
  4011c1:	4d 89 c1             	mov    %r8,%r9
  4011c4:	4d 89 ca             	mov    %r9,%r10
  4011c7:	4d 89 d3             	mov    %r10,%r11
  4011ca:	4d 89 d8             	mov    %r11,%r8
  4011cd:	4d 89 c1             	mov    %r8,%r9
  4011d0:	4d 89 ca             	mov    %r9,%r10
  4011d3:	4d 89 d3             	mov    %r10,%r11
  4011d6:	4d 89 d8             	mov    %r11,%r8
  4011d9:	4d 89 c1             	mov    %r8,%r9
  4011dc:	4d 89 ca             	mov    %r9,%r10
  4011df:	4d 89 d3             	mov    %r10,%r11
  4011e2:	4d 89 d8             	mov    %r11,%r8
  4011e5:	4d 89 c1             	mov    %r8,%r9
  4011e8:	4d 89 ca             	mov    %r9,%r10
  4011eb:	4d 89 d3             	mov    %r10,%r11
  4011ee:	4d 89 d8             	mov    %r11,%r8
  4011f1:	4d 89 c1             	mov    %r8,%r9
  4011f4:	4d 89 ca             	mov    %r9,%r10
  4011f7:	4d 89 d3             	mov    %r10,%r11
  4011fa:	4d 89 d8             	mov    %r11,%r8
  4011fd:	4d 89 c1             	mov    %r8,%r9
  401200:	4d 89 ca             	mov    %r9,%r10
  401203:	4d 89 d3             	mov    %r10,%r11
  401206:	4d 89 d8             	mov    %r11,%r8
  401209:	4d 89 c1             	mov    %r8,%r9
  40120c:	4d 89 ca             	mov    %r9,%r10
  40120f:	4d 89 d3             	mov    %r10,%r11
  401212:	4d 89 d8             	mov    %r11,%r8
  401215:	4d 89 c1             	mov    %r8,%r9
  401218:	4d 89 ca             	mov    %r9,%r10
  40121b:	4d 89 d3             	mov    %r10,%r11
  40121e:	4d 89 d8             	mov    %r11,%r8
  401221:	4d 89 c1             	mov    %r8,%r9
  401224:	4d 89 ca             	mov    %r9,%r10
  401227:	4d 89 d3             	mov    %r10,%r11
  40122a:	4d 89 d8             	mov    %r11,%r8
  40122d:	4d 89 c1             	mov    %r8,%r9
  401230:	4d 89 ca             	mov    %r9,%r10
  401233:	4d 89 d3             	mov    %r10,%r11
  401236:	4d 89 d8             	mov    %r11,%r8
  401239:	4d 89 c1             	mov    %r8,%r9
  40123c:	4d 89 ca             	mov    %r9,%r10
  40123f:	4d 89 d3             	mov    %r10,%r11
  401242:	4d 89 d8             	mov    %r11,%r8
  401245:	4d 89 c1             	mov    %r8,%r9
  401248:	4d 89 ca             	mov    %r9,%r10
  40124b:	4d 89 d3             	mov    %r10,%r11
  40124e:	4d 89 d8             	mov    %r11,%r8
  401251:	4d 89 c1             	mov    %r8,%r9
  401254:	4d 89 ca             	mov    %r9,%r10
  401257:	4d 89 d3             	mov    %r10,%r11
  40125a:	4d 89 d8             	mov    %r11,%r8
  40125d:	4d 89 c1             	mov    %r8,%r9
  401260:	4d 89 ca             	mov    %r9,%r10
  401263:	4d 89 d3             	mov    %r10,%r11
  401266:	4d 89 d8             	mov    %r11,%r8
  401269:	4d 89 c1             	mov    %r8,%r9
  40126c:	4d 89 ca             	mov    %r9,%r10
  40126f:	4d 89 d3             	mov    %r10,%r11
  401272:	4d 89 d8             	mov    %r11,%r8
  401275:	4d 89 c1             	mov    %r8,%r9
  401278:	4d 89 ca             	mov    %r9,%r10
  40127b:	4d 89 d3             	mov    %r10,%r11
  40127e:	4d 89 d8             	mov    %r11,%r8
  401281:	4d 89 c1             	mov    %r8,%r9
  401284:	4d 89 ca             	mov    %r9,%r10
  401287:	4d 89 d3             	mov    %r10,%r11
  40128a:	4d 89 d8             	mov    %r11,%r8
  40128d:	4d 89 c1             	mov    %r8,%r9
  401290:	4d 89 ca             	mov    %r9,%r10
  401293:	4d 89 d3             	mov    %r10,%r11
  401296:	4d 89 d8             	mov    %r11,%r8
  401299:	4d 89 c1             	mov    %r8,%r9
  40129c:	4d 89 ca             	mov    %r9,%r10
  40129f:	4d 89 d3             	mov    %r10,%r11
  4012a2:	4d 89 d8             	mov    %r11,%r8
  4012a5:	4d 89 c1             	mov    %r8,%r9
  4012a8:	4d 89 ca             	mov    %r9,%r10
  4012ab:	4d 89 d3             	mov    %r10,%r11
  4012ae:	4d 89 d8             	mov    %r11,%r8
  4012b1:	4d 89 c1             	mov    %r8,%r9
  4012b4:	4d 89 ca             	mov    %r9,%r10
  4012b7:	4d 89 d3             	mov    %r10,%r11
  4012ba:	4d 89 d8             	mov    %r11,%r8
  4012bd:	4d 89 c1             	mov    %r8,%r9
  4012c0:	4d 89 ca             	mov    %r9,%r10
  4012c3:	4d 89 d3             	mov    %r10,%r11
  4012c6:	4d 89 d8             	mov    %r11,%r8
  4012c9:	4d 89 c1             	mov    %r8,%r9
  4012cc:	4d 89 ca             	mov    %r9,%r10
  4012cf:	4d 89 d3             	mov    %r10,%r11
  4012d2:	4d 89 d8             	mov    %r11,%r8
  4012d5:	4d 89 c1             	mov    %r8,%r9
  4012d8:	4d 89 ca             	mov    %r9,%r10
  4012db:	4d 89 d3             	mov    %r10,%r11
  4012de:	4d 89 d8             	mov    %r11,%r8
  4012e1:	4d 89 c1             	mov    %r8,%r9
  4012e4:	4d 89 ca             	mov    %r9,%r10
  4012e7:	4d 89 d3             	mov    %r10,%r11
  4012ea:	4d 89 d8             	mov    %r11,%r8
  4012ed:	4d 89 c1             	mov    %r8,%r9
  4012f0:	4d 89 ca             	mov    %r9,%r10
  4012f3:	4d 89 d3             	mov    %r10,%r11
  4012f6:	4d 89 d8             	mov    %r11,%r8
  4012f9:	4d 89 c1             	mov    %r8,%r9
  4012fc:	4d 89 ca             	mov    %r9,%r10
  4012ff:	4d 89 d3             	mov    %r10,%r11
  401302:	4d 89 d8             	mov    %r11,%r8
  401305:	4d 89 c1             	mov    %r8,%r9
  401308:	4d 89 ca             	mov    %r9,%r10
  40130b:	4d 89 d3             	mov    %r10,%r11
  40130e:	4d 89 d8             	mov    %r11,%r8
  401311:	4d 89 c1             	mov    %r8,%r9
  401314:	4d 89 ca             	mov    %r9,%r10
  401317:	4d 89 d3             	mov    %r10,%r11
  40131a:	4d 89 d8             	mov    %r11,%r8
  40131d:	4d 89 c1             	mov    %r8,%r9
  401320:	4d 89 ca             	mov    %r9,%r10
  401323:	4d 89 d3             	mov    %r10,%r11
  401326:	4d 89 d8             	mov    %r11,%r8
  401329:	4d 89 c1             	mov    %r8,%r9
  40132c:	4d 89 ca             	mov    %r9,%r10
  40132f:	4d 89 d3             	mov    %r10,%r11
  401332:	4d 89 d8             	mov    %r11,%r8
  401335:	4d 89 c1             	mov    %r8,%r9
  401338:	4d 89 ca             	mov    %r9,%r10
  40133b:	4d 89 d3             	mov    %r10,%r11
  40133e:	4d 89 d8             	mov    %r11,%r8
  401341:	4d 89 c1             	mov    %r8,%r9
  401344:	4d 89 ca             	mov    %r9,%r10
  401347:	4d 89 d3             	mov    %r10,%r11
  40134a:	4d 89 d8             	mov    %r11,%r8
  40134d:	4d 89 c1             	mov    %r8,%r9
  401350:	4d 89 ca             	mov    %r9,%r10
  401353:	4d 89 d3             	mov    %r10,%r11
  401356:	4d 89 d8             	mov    %r11,%r8
  401359:	4d 89 c1             	mov    %r8,%r9
  40135c:	4d 89 ca             	mov    %r9,%r10
  40135f:	4d 89 d3             	mov    %r10,%r11
  401362:	4d 89 d8             	mov    %r11,%r8
  401365:	4d 89 c1             	mov    %r8,%r9
  401368:	4d 89 ca             	mov    %r9,%r10
  40136b:	4d 89 d3             	mov    %r10,%r11
  40136e:	4d 89 d8             	mov    %r11,%r8
  401371:	4d 89 c1             	mov    %r8,%r9
  401374:	4d 89 ca             	mov    %r9,%r10
  401377:	4d 89 d3             	mov    %r10,%r11
  40137a:	4d 89 d8             	mov    %r11,%r8
  40137d:	4d 89 c1             	mov    %r8,%r9
  401380:	4d 89 ca             	mov    %r9,%r10
  401383:	4d 89 d3             	mov    %r10,%r11
  401386:	4d 89 d8             	mov    %r11,%r8
  401389:	4d 89 c1             	mov    %r8,%r9
  40138c:	4d 89 ca             	mov    %r9,%r10
  40138f:	4d 89 d3             	mov    %r10,%r11
  401392:	4d 89 d8             	mov    %r11,%r8
  401395:	4d 89 c1             	mov    %r8,%r9
  401398:	4d 89 ca             	mov    %r9,%r10
  40139b:	4d 89 d3             	mov    %r10,%r11
  40139e:	4d 89 d8             	mov    %r11,%r8
  4013a1:	4d 89 c1             	mov    %r8,%r9
  4013a4:	4d 89 ca             	mov    %r9,%r10
  4013a7:	4d 89 d3             	mov    %r10,%r11
  4013aa:	4d 89 d8             	mov    %r11,%r8
  4013ad:	4d 89 c1             	mov    %r8,%r9
  4013b0:	4d 89 ca             	mov    %r9,%r10
  4013b3:	4d 89 d3             	mov    %r10,%r11
  4013b6:	4d 89 d8             	mov    %r11,%r8
  4013b9:	4d 89 c1             	mov    %r8,%r9
  4013bc:	4d 89 ca             	mov    %r9,%r10
  4013bf:	4d 89 d3             	mov    %r10,%r11
  4013c2:	4d 89 d8             	mov    %r11,%r8
  4013c5:	4d 89 c1             	mov    %r8,%r9
  4013c8:	4d 89 ca             	mov    %r9,%r10
  4013cb:	4d 89 d3             	mov    %r10,%r11
  4013ce:	4d 89 d8             	mov    %r11,%r8
  4013d1:	4d 89 c1             	mov    %r8,%r9
  4013d4:	4d 89 ca             	mov    %r9,%r10
  4013d7:	4d 89 d3             	mov    %r10,%r11
  4013da:	4d 89 d8             	mov    %r11,%r8
  4013dd:	4d 89 c1             	mov    %r8,%r9
  4013e0:	4d 89 ca             	mov    %r9,%r10
  4013e3:	4d 89 d3             	mov    %r10,%r11
  4013e6:	4d 89 d8             	mov    %r11,%r8
  4013e9:	4d 89 c1             	mov    %r8,%r9
  4013ec:	4d 89 ca             	mov    %r9,%r10
  4013ef:	4d 89 d3             	mov    %r10,%r11
  4013f2:	4d 89 d8             	mov    %r11,%r8
  4013f5:	4d 89 c1             	mov    %r8,%r9
  4013f8:	4d 89 ca             	mov    %r9,%r10
  4013fb:	4d 89 d3             	mov    %r10,%r11
  4013fe:	4d 89 d8             	mov    %r11,%r8
  401401:	4d 89 c1             	mov    %r8,%r9
  401404:	4d 89 ca             	mov    %r9,%r10
  401407:	4d 89 d3             	mov    %r10,%r11
  40140a:	4d 89 d8             	mov    %r11,%r8
  40140d:	4d 89 c1             	mov    %r8,%r9
  401410:	4d 89 ca             	mov    %r9,%r10
  401413:	4d 89 d3             	mov    %r10,%r11
  401416:	4d 89 d8             	mov    %r11,%r8
  401419:	4d 89 c1             	mov    %r8,%r9
  40141c:	4d 89 ca             	mov    %r9,%r10
  40141f:	4d 89 d3             	mov    %r10,%r11
  401422:	4d 89 d8             	mov    %r11,%r8
  401425:	4d 89 c1             	mov    %r8,%r9
  401428:	4d 89 ca             	mov    %r9,%r10
  40142b:	4d 89 d3             	mov    %r10,%r11
  40142e:	4d 89 d8             	mov    %r11,%r8
  401431:	4d 89 c1             	mov    %r8,%r9
  401434:	4d 89 ca             	mov    %r9,%r10
  401437:	4d 89 d3             	mov    %r10,%r11
  40143a:	4d 89 d8             	mov    %r11,%r8
  40143d:	4d 89 c1             	mov    %r8,%r9
  401440:	4d 89 ca             	mov    %r9,%r10
  401443:	4d 89 d3             	mov    %r10,%r11
  401446:	4d 89 d8             	mov    %r11,%r8
  401449:	4d 89 c1             	mov    %r8,%r9
  40144c:	4d 89 ca             	mov    %r9,%r10
  40144f:	4d 89 d3             	mov    %r10,%r11
  401452:	4d 89 d8             	mov    %r11,%r8
  401455:	4d 89 c1             	mov    %r8,%r9
  401458:	4d 89 ca             	mov    %r9,%r10
  40145b:	4d 89 d3             	mov    %r10,%r11
  40145e:	4d 89 d8             	mov    %r11,%r8
  401461:	4d 89 c1             	mov    %r8,%r9
  401464:	4d 89 ca             	mov    %r9,%r10
  401467:	4d 89 d3             	mov    %r10,%r11
  40146a:	4d 89 d8             	mov    %r11,%r8
  40146d:	4d 89 c1             	mov    %r8,%r9
  401470:	4d 89 ca             	mov    %r9,%r10
  401473:	4d 89 d3             	mov    %r10,%r11
  401476:	4d 89 d8             	mov    %r11,%r8
  401479:	4d 89 c1             	mov    %r8,%r9
  40147c:	4d 89 ca             	mov    %r9,%r10
  40147f:	4d 89 d3             	mov    %r10,%r11
  401482:	4d 89 d8             	mov    %r11,%r8
  401485:	4d 89 c1             	mov    %r8,%r9
  401488:	4d 89 ca             	mov    %r9,%r10
  40148b:	4d 89 d3             	mov    %r10,%r11
  40148e:	4d 89 d8             	mov    %r11,%r8
  401491:	4d 89 c1             	mov    %r8,%r9
  401494:	4d 89 ca             	mov    %r9,%r10
  401497:	4d 89 d3             	mov    %r10,%r11
  40149a:	4d 89 d8             	mov    %r11,%r8
  40149d:	4d 89 c1             	mov    %r8,%r9
  4014a0:	4d 89 ca             	mov    %r9,%r10
  4014a3:	4d 89 d3             	mov    %r10,%r11
  4014a6:	4d 89 d8             	mov    %r11,%r8
  4014a9:	4d 89 c1             	mov    %r8,%r9
  4014ac:	4d 89 ca             	mov    %r9,%r10
  4014af:	4d 89 d3             	mov    %r10,%r11
  4014b2:	4d 89 d8             	mov    %r11,%r8
  4014b5:	4d 89 c1             	mov    %r8,%r9
  4014b8:	4d 89 ca             	mov    %r9,%r10
  4014bb:	4d 89 d3             	mov    %r10,%r11
  4014be:	4d 89 d8             	mov    %r11,%r8
  4014c1:	4d 89 c1             	mov    %r8,%r9
  4014c4:	4d 89 ca             	mov    %r9,%r10
  4014c7:	4d 89 d3             	mov    %r10,%r11
  4014ca:	4d 89 d8             	mov    %r11,%r8
  4014cd:	4d 89 c1             	mov    %r8,%r9
  4014d0:	4d 89 ca             	mov    %r9,%r10
  4014d3:	4d 89 d3             	mov    %r10,%r11
  4014d6:	4d 89 d8             	mov    %r11,%r8
  4014d9:	4d 89 c1             	mov    %r8,%r9
  4014dc:	4d 89 ca             	mov    %r9,%r10
  4014df:	4d 89 d3             	mov    %r10,%r11
  4014e2:	4d 89 d8             	mov    %r11,%r8
  4014e5:	4d 89 c1             	mov    %r8,%r9
  4014e8:	4d 89 ca             	mov    %r9,%r10
  4014eb:	4d 89 d3             	mov    %r10,%r11
  4014ee:	4d 89 d8             	mov    %r11,%r8
  4014f1:	4d 89 c1             	mov    %r8,%r9
  4014f4:	4d 89 ca             	mov    %r9,%r10
  4014f7:	4d 89 d3             	mov    %r10,%r11
  4014fa:	4d 89 d8             	mov    %r11,%r8
  4014fd:	4d 89 c1             	mov    %r8,%r9
  401500:	4d 89 ca             	mov    %r9,%r10
  401503:	4d 89 d3             	mov    %r10,%r11
  401506:	4d 89 d8             	mov    %r11,%r8
  401509:	4d 89 c1             	mov    %r8,%r9
  40150c:	4d 89 ca             	mov    %r9,%r10
  40150f:	4d 89 d3             	mov    %r10,%r11
  401512:	4d 89 d8             	mov    %r11,%r8
  401515:	4d 89 c1             	mov    %r8,%r9
  401518:	4d 89 ca             	mov    %r9,%r10
  40151b:	4d 89 d3             	mov    %r10,%r11
  40151e:	4d 89 d8             	mov    %r11,%r8
  401521:	4d 89 c1             	mov    %r8,%r9
  401524:	4d 89 ca             	mov    %r9,%r10
  401527:	4d 89 d3             	mov    %r10,%r11
  40152a:	4d 89 d8             	mov    %r11,%r8
  40152d:	4d 89 c1             	mov    %r8,%r9
  401530:	4d 89 ca             	mov    %r9,%r10
  401533:	4d 89 d3             	mov    %r10,%r11
  401536:	4d 89 d8             	mov    %r11,%r8
  401539:	4d 89 c1             	mov    %r8,%r9
  40153c:	4d 89 ca             	mov    %r9,%r10
  40153f:	4d 89 d3             	mov    %r10,%r11
  401542:	4d 89 d8             	mov    %r11,%r8
  401545:	4d 89 c1             	mov    %r8,%r9
  401548:	4d 89 ca             	mov    %r9,%r10
  40154b:	4d 89 d3             	mov    %r10,%r11
  40154e:	4d 89 d8             	mov    %r11,%r8
  401551:	4d 89 c1             	mov    %r8,%r9
  401554:	4d 89 ca             	mov    %r9,%r10
  401557:	4d 89 d3             	mov    %r10,%r11
  40155a:	4d 89 d8             	mov    %r11,%r8
  40155d:	4d 89 c1             	mov    %r8,%r9
  401560:	4d 89 ca             	mov    %r9,%r10
  401563:	4d 89 d3             	mov    %r10,%r11
  401566:	4d 89 d8             	mov    %r11,%r8
  401569:	4d 89 c1             	mov    %r8,%r9
  40156c:	4d 89 ca             	mov    %r9,%r10
  40156f:	4d 89 d3             	mov    %r10,%r11
  401572:	4d 89 d8             	mov    %r11,%r8
  401575:	4d 89 c1             	mov    %r8,%r9
  401578:	4d 89 ca             	mov    %r9,%r10
  40157b:	4d 89 d3             	mov    %r10,%r11
  40157e:	4d 89 d8             	mov    %r11,%r8
  401581:	4d 89 c1             	mov    %r8,%r9
  401584:	4d 89 ca             	mov    %r9,%r10
  401587:	4d 89 d3             	mov    %r10,%r11
  40158a:	4d 89 d8             	mov    %r11,%r8
  40158d:	4d 89 c1             	mov    %r8,%r9
  401590:	4d 89 ca             	mov    %r9,%r10
  401593:	4d 89 d3             	mov    %r10,%r11
  401596:	4d 89 d8             	mov    %r11,%r8
  401599:	4d 89 c1             	mov    %r8,%r9
  40159c:	4d 89 ca             	mov    %r9,%r10
  40159f:	4d 89 d3             	mov    %r10,%r11
  4015a2:	4d 89 d8             	mov    %r11,%r8
  4015a5:	4d 89 c1             	mov    %r8,%r9
  4015a8:	4d 89 ca             	mov    %r9,%r10
  4015ab:	4d 89 d3             	mov    %r10,%r11
  4015ae:	4d 89 d8             	mov    %r11,%r8
  4015b1:	4d 89 c1             	mov    %r8,%r9
  4015b4:	4d 89 ca             	mov    %r9,%r10
  4015b7:	4d 89 d3             	mov    %r10,%r11
  4015ba:	4d 89 d8             	mov    %r11,%r8
  4015bd:	4d 89 c1             	mov    %r8,%r9
  4015c0:	4d 89 ca             	mov    %r9,%r10
  4015c3:	4d 89 d3             	mov    %r10,%r11
  4015c6:	4d 89 d8             	mov    %r11,%r8
  4015c9:	4d 89 c1             	mov    %r8,%r9
  4015cc:	4d 89 ca             	mov    %r9,%r10
  4015cf:	4d 89 d3             	mov    %r10,%r11
  4015d2:	4d 89 d8             	mov    %r11,%r8
  4015d5:	4d 89 c1             	mov    %r8,%r9
  4015d8:	4d 89 ca             	mov    %r9,%r10
  4015db:	4d 89 d3             	mov    %r10,%r11
  4015de:	4d 89 d8             	mov    %r11,%r8
  4015e1:	4d 89 c1             	mov    %r8,%r9
  4015e4:	4d 89 ca             	mov    %r9,%r10
  4015e7:	4d 89 d3             	mov    %r10,%r11
  4015ea:	4d 89 d8             	mov    %r11,%r8
  4015ed:	4d 89 c1             	mov    %r8,%r9
  4015f0:	4d 89 ca             	mov    %r9,%r10
  4015f3:	4d 89 d3             	mov    %r10,%r11
  4015f6:	4d 89 d8             	mov    %r11,%r8
  4015f9:	4d 89 c1             	mov    %r8,%r9
  4015fc:	4d 89 ca             	mov    %r9,%r10
  4015ff:	4d 89 d3             	mov    %r10,%r11
  401602:	4d 89 d8             	mov    %r11,%r8
  401605:	4d 89 c1             	mov    %r8,%r9
  401608:	4d 89 ca             	mov    %r9,%r10
  40160b:	4d 89 d3             	mov    %r10,%r11
  40160e:	4d 89 d8             	mov    %r11,%r8
  401611:	4d 89 c1             	mov    %r8,%r9
  401614:	4d 89 ca             	mov    %r9,%r10
  401617:	4d 89 d3             	mov    %r10,%r11
  40161a:	4d 89 d8             	mov    %r11,%r8
  40161d:	4d 89 c1             	mov    %r8,%r9
  401620:	4d 89 ca             	mov    %r9,%r10
  401623:	4d 89 d3             	mov    %r10,%r11
  401626:	4d 89 d8             	mov    %r11,%r8
  401629:	4d 89 c1             	mov    %r8,%r9
  40162c:	4d 89 ca             	mov    %r9,%r10
  40162f:	4d 89 d3             	mov    %r10,%r11
  401632:	4d 89 d8             	mov    %r11,%r8
  401635:	4d 89 c1             	mov    %r8,%r9
  401638:	4d 89 ca             	mov    %r9,%r10
  40163b:	4d 89 d3             	mov    %r10,%r11
  40163e:	4d 89 d8             	mov    %r11,%r8
  401641:	4d 89 c1             	mov    %r8,%r9
  401644:	4d 89 ca             	mov    %r9,%r10
  401647:	4d 89 d3             	mov    %r10,%r11
  40164a:	4d 89 d8             	mov    %r11,%r8
  40164d:	4d 89 c1             	mov    %r8,%r9
  401650:	4d 89 ca             	mov    %r9,%r10
  401653:	4d 89 d3             	mov    %r10,%r11
  401656:	4d 89 d8             	mov    %r11,%r8
  401659:	4d 89 c1             	mov    %r8,%r9
  40165c:	4d 89 ca             	mov    %r9,%r10
  40165f:	4d 89 d3             	mov    %r10,%r11
  401662:	4d 89 d8             	mov    %r11,%r8
  401665:	4d 89 c1             	mov    %r8,%r9
  401668:	4d 89 ca             	mov    %r9,%r10
  40166b:	4d 89 d3             	mov    %r10,%r11
  40166e:	4d 89 d8             	mov    %r11,%r8
  401671:	4d 89 c1             	mov    %r8,%r9
  401674:	4d 89 ca             	mov    %r9,%r10
  401677:	4d 89 d3             	mov    %r10,%r11
  40167a:	4d 89 d8             	mov    %r11,%r8
  40167d:	4d 89 c1             	mov    %r8,%r9
  401680:	4d 89 ca             	mov    %r9,%r10
  401683:	4d 89 d3             	mov    %r10,%r11
  401686:	4d 89 d8             	mov    %r11,%r8
  401689:	4d 89 c1             	mov    %r8,%r9
  40168c:	4d 89 ca             	mov    %r9,%r10
  40168f:	4d 89 d3             	mov    %r10,%r11
  401692:	4d 89 d8             	mov    %r11,%r8
  401695:	4d 89 c1             	mov    %r8,%r9
  401698:	4d 89 ca             	mov    %r9,%r10
  40169b:	4d 89 d3             	mov    %r10,%r11
  40169e:	4d 89 d8             	mov    %r11,%r8
  4016a1:	4d 89 c1             	mov    %r8,%r9
  4016a4:	4d 89 ca             	mov    %r9,%r10
  4016a7:	4d 89 d3             	mov    %r10,%r11
  4016aa:	4d 89 d8             	mov    %r11,%r8
  4016ad:	4d 89 c1             	mov    %r8,%r9
  4016b0:	4d 89 ca             	mov    %r9,%r10
  4016b3:	4d 89 d3             	mov    %r10,%r11
  4016b6:	4d 89 d8             	mov    %r11,%r8
  4016b9:	4d 89 c1             	mov    %r8,%r9
  4016bc:	4d 89 ca             	mov    %r9,%r10
  4016bf:	4d 89 d3             	mov    %r10,%r11
  4016c2:	4d 89 d8             	mov    %r11,%r8
  4016c5:	4d 89 c1             	mov    %r8,%r9
  4016c8:	4d 89 ca             	mov    %r9,%r10
  4016cb:	4d 89 d3             	mov    %r10,%r11
  4016ce:	4d 89 d8             	mov    %r11,%r8
  4016d1:	4d 89 c1             	mov    %r8,%r9
  4016d4:	4d 89 ca             	mov    %r9,%r10
  4016d7:	4d 89 d3             	mov    %r10,%r11
  4016da:	4d 89 d8             	mov    %r11,%r8
  4016dd:	4d 89 c1             	mov    %r8,%r9
  4016e0:	4d 89 ca             	mov    %r9,%r10
  4016e3:	4d 89 d3             	mov    %r10,%r11
  4016e6:	4d 89 d8             	mov    %r11,%r8
  4016e9:	4d 89 c1             	mov    %r8,%r9
  4016ec:	4d 89 ca             	mov    %r9,%r10
  4016ef:	4d 89 d3             	mov    %r10,%r11
  4016f2:	4d 89 d8             	mov    %r11,%r8
  4016f5:	4d 89 c1             	mov    %r8,%r9
  4016f8:	4d 89 ca             	mov    %r9,%r10
  4016fb:	4d 89 d3             	mov    %r10,%r11
  4016fe:	4d 89 d8             	mov    %r11,%r8
  401701:	4d 89 c1             	mov    %r8,%r9
  401704:	4d 89 ca             	mov    %r9,%r10
  401707:	4d 89 d3             	mov    %r10,%r11
  40170a:	4d 89 d8             	mov    %r11,%r8
  40170d:	4d 89 c1             	mov    %r8,%r9
  401710:	4d 89 ca             	mov    %r9,%r10
  401713:	4d 89 d3             	mov    %r10,%r11
  401716:	4d 89 d8             	mov    %r11,%r8
  401719:	4d 89 c1             	mov    %r8,%r9
  40171c:	4d 89 ca             	mov    %r9,%r10
  40171f:	4d 89 d3             	mov    %r10,%r11
  401722:	4d 89 d8             	mov    %r11,%r8
  401725:	4d 89 c1             	mov    %r8,%r9
  401728:	4d 89 ca             	mov    %r9,%r10
  40172b:	4d 89 d3             	mov    %r10,%r11
  40172e:	4d 89 d8             	mov    %r11,%r8
  401731:	4d 89 c1             	mov    %r8,%r9
  401734:	4d 89 ca             	mov    %r9,%r10
  401737:	4d 89 d3             	mov    %r10,%r11
  40173a:	4d 89 d8             	mov    %r11,%r8
  40173d:	4d 89 c1             	mov    %r8,%r9
  401740:	4d 89 ca             	mov    %r9,%r10
  401743:	4d 89 d3             	mov    %r10,%r11
  401746:	4d 89 d8             	mov    %r11,%r8
  401749:	4d 89 c1             	mov    %r8,%r9
  40174c:	4d 89 ca             	mov    %r9,%r10
  40174f:	4d 89 d3             	mov    %r10,%r11
  401752:	4d 89 d8             	mov    %r11,%r8
  401755:	4d 89 c1             	mov    %r8,%r9
  401758:	4d 89 ca             	mov    %r9,%r10
  40175b:	4d 89 d3             	mov    %r10,%r11
  40175e:	4d 89 d8             	mov    %r11,%r8
  401761:	4d 89 c1             	mov    %r8,%r9
  401764:	4d 89 ca             	mov    %r9,%r10
  401767:	4d 89 d3             	mov    %r10,%r11
  40176a:	4d 89 d8             	mov    %r11,%r8
  40176d:	4d 89 c1             	mov    %r8,%r9
  401770:	4d 89 ca             	mov    %r9,%r10
  401773:	4d 89 d3             	mov    %r10,%r11
  401776:	4d 89 d8             	mov    %r11,%r8
  401779:	4d 89 c1             	mov    %r8,%r9
  40177c:	4d 89 ca             	mov    %r9,%r10
  40177f:	4d 89 d3             	mov    %r10,%r11
  401782:	4d 89 d8             	mov    %r11,%r8
  401785:	4d 89 c1             	mov    %r8,%r9
  401788:	4d 89 ca             	mov    %r9,%r10
  40178b:	4d 89 d3             	mov    %r10,%r11
  40178e:	4d 89 d8             	mov    %r11,%r8
  401791:	4d 89 c1             	mov    %r8,%r9
  401794:	4d 89 ca             	mov    %r9,%r10
  401797:	4d 89 d3             	mov    %r10,%r11
  40179a:	4d 89 d8             	mov    %r11,%r8
  40179d:	4d 89 c1             	mov    %r8,%r9
  4017a0:	4d 89 ca             	mov    %r9,%r10
  4017a3:	4d 89 d3             	mov    %r10,%r11
  4017a6:	4d 89 d8             	mov    %r11,%r8
  4017a9:	4d 89 c1             	mov    %r8,%r9
  4017ac:	4d 89 ca             	mov    %r9,%r10
  4017af:	4d 89 d3             	mov    %r10,%r11
  4017b2:	4d 89 d8             	mov    %r11,%r8
  4017b5:	4d 89 c1             	mov    %r8,%r9
  4017b8:	4d 89 ca             	mov    %r9,%r10
  4017bb:	4d 89 d3             	mov    %r10,%r11
  4017be:	4d 89 d8             	mov    %r11,%r8
  4017c1:	4d 89 c1             	mov    %r8,%r9
  4017c4:	4d 89 ca             	mov    %r9,%r10
  4017c7:	4d 89 d3             	mov    %r10,%r11
  4017ca:	4d 89 d8             	mov    %r11,%r8
  4017cd:	4d 89 c1             	mov    %r8,%r9
  4017d0:	4d 89 ca             	mov    %r9,%r10
  4017d3:	4d 89 d3             	mov    %r10,%r11
  4017d6:	4d 89 d8             	mov    %r11,%r8
  4017d9:	4d 89 c1             	mov    %r8,%r9
  4017dc:	4d 89 ca             	mov    %r9,%r10
  4017df:	4d 89 d3             	mov    %r10,%r11
  4017e2:	4d 89 d8             	mov    %r11,%r8
  4017e5:	4d 89 c1             	mov    %r8,%r9
  4017e8:	4d 89 ca             	mov    %r9,%r10
  4017eb:	4d 89 d3             	mov    %r10,%r11
  4017ee:	4d 89 d8             	mov    %r11,%r8
  4017f1:	4d 89 c1             	mov    %r8,%r9
  4017f4:	4d 89 ca             	mov    %r9,%r10
  4017f7:	4d 89 d3             	mov    %r10,%r11
  4017fa:	4d 89 d8             	mov    %r11,%r8
  4017fd:	4d 89 c1             	mov    %r8,%r9
  401800:	4d 89 ca             	mov    %r9,%r10
  401803:	4d 89 d3             	mov    %r10,%r11
  401806:	4d 89 d8             	mov    %r11,%r8
  401809:	4d 89 c1             	mov    %r8,%r9
  40180c:	4d 89 ca             	mov    %r9,%r10
  40180f:	4d 89 d3             	mov    %r10,%r11
  401812:	4d 89 d8             	mov    %r11,%r8
  401815:	4d 89 c1             	mov    %r8,%r9
  401818:	4d 89 ca             	mov    %r9,%r10
  40181b:	4d 89 d3             	mov    %r10,%r11
  40181e:	4d 89 d8             	mov    %r11,%r8
  401821:	4d 89 c1             	mov    %r8,%r9
  401824:	4d 89 ca             	mov    %r9,%r10
  401827:	4d 89 d3             	mov    %r10,%r11
  40182a:	4d 89 d8             	mov    %r11,%r8
  40182d:	4d 89 c1             	mov    %r8,%r9
  401830:	4d 89 ca             	mov    %r9,%r10
  401833:	4d 89 d3             	mov    %r10,%r11
  401836:	4d 89 d8             	mov    %r11,%r8
  401839:	4d 89 c1             	mov    %r8,%r9
  40183c:	4d 89 ca             	mov    %r9,%r10
  40183f:	4d 89 d3             	mov    %r10,%r11
  401842:	4d 89 d8             	mov    %r11,%r8
  401845:	4d 89 c1             	mov    %r8,%r9
  401848:	4d 89 ca             	mov    %r9,%r10
  40184b:	4d 89 d3             	mov    %r10,%r11
  40184e:	4d 89 d8             	mov    %r11,%r8
  401851:	4d 89 c1             	mov    %r8,%r9
  401854:	4d 89 ca             	mov    %r9,%r10
  401857:	4d 89 d3             	mov    %r10,%r11
  40185a:	4d 89 d8             	mov    %r11,%r8
  40185d:	4d 89 c1             	mov    %r8,%r9
  401860:	4d 89 ca             	mov    %r9,%r10
  401863:	4d 89 d3             	mov    %r10,%r11
  401866:	4d 89 d8             	mov    %r11,%r8
  401869:	4d 89 c1             	mov    %r8,%r9
  40186c:	4d 89 ca             	mov    %r9,%r10
  40186f:	4d 89 d3             	mov    %r10,%r11
  401872:	4d 89 d8             	mov    %r11,%r8
  401875:	4d 89 c1             	mov    %r8,%r9
  401878:	4d 89 ca             	mov    %r9,%r10
  40187b:	4d 89 d3             	mov    %r10,%r11
  40187e:	4d 89 d8             	mov    %r11,%r8
  401881:	4d 89 c1             	mov    %r8,%r9
  401884:	4d 89 ca             	mov    %r9,%r10
  401887:	4d 89 d3             	mov    %r10,%r11
  40188a:	4d 89 d8             	mov    %r11,%r8
  40188d:	4d 89 c1             	mov    %r8,%r9
  401890:	4d 89 ca             	mov    %r9,%r10
  401893:	4d 89 d3             	mov    %r10,%r11
  401896:	4d 89 d8             	mov    %r11,%r8
  401899:	4d 89 c1             	mov    %r8,%r9
  40189c:	4d 89 ca             	mov    %r9,%r10
  40189f:	4d 89 d3             	mov    %r10,%r11
  4018a2:	4d 89 d8             	mov    %r11,%r8
  4018a5:	4d 89 c1             	mov    %r8,%r9
  4018a8:	4d 89 ca             	mov    %r9,%r10
  4018ab:	4d 89 d3             	mov    %r10,%r11
  4018ae:	4d 89 d8             	mov    %r11,%r8
  4018b1:	4d 89 c1             	mov    %r8,%r9
  4018b4:	4d 89 ca             	mov    %r9,%r10
  4018b7:	4d 89 d3             	mov    %r10,%r11
  4018ba:	4d 89 d8             	mov    %r11,%r8
  4018bd:	4d 89 c1             	mov    %r8,%r9
  4018c0:	4d 89 ca             	mov    %r9,%r10
  4018c3:	4d 89 d3             	mov    %r10,%r11
  4018c6:	4d 89 d8             	mov    %r11,%r8
  4018c9:	4d 89 c1             	mov    %r8,%r9
  4018cc:	4d 89 ca             	mov    %r9,%r10
  4018cf:	4d 89 d3             	mov    %r10,%r11
  4018d2:	4d 89 d8             	mov    %r11,%r8
  4018d5:	4d 89 c1             	mov    %r8,%r9
  4018d8:	4d 89 ca             	mov    %r9,%r10
  4018db:	4d 89 d3             	mov    %r10,%r11
  4018de:	4d 89 d8             	mov    %r11,%r8
  4018e1:	4d 89 c1             	mov    %r8,%r9
  4018e4:	4d 89 ca             	mov    %r9,%r10
  4018e7:	4d 89 d3             	mov    %r10,%r11
  4018ea:	4d 89 d8             	mov    %r11,%r8
  4018ed:	4d 89 c1             	mov    %r8,%r9
  4018f0:	4d 89 ca             	mov    %r9,%r10
  4018f3:	4d 89 d3             	mov    %r10,%r11
  4018f6:	4d 89 d8             	mov    %r11,%r8
  4018f9:	4d 89 c1             	mov    %r8,%r9
  4018fc:	4d 89 ca             	mov    %r9,%r10
  4018ff:	4d 89 d3             	mov    %r10,%r11
  401902:	4d 89 d8             	mov    %r11,%r8
  401905:	4d 89 c1             	mov    %r8,%r9
  401908:	4d 89 ca             	mov    %r9,%r10
  40190b:	4d 89 d3             	mov    %r10,%r11
  40190e:	4d 89 d8             	mov    %r11,%r8
  401911:	4d 89 c1             	mov    %r8,%r9
  401914:	4d 89 ca             	mov    %r9,%r10
  401917:	4d 89 d3             	mov    %r10,%r11
  40191a:	4d 89 d8             	mov    %r11,%r8
  40191d:	4d 89 c1             	mov    %r8,%r9
  401920:	4d 89 ca             	mov    %r9,%r10
  401923:	4d 89 d3             	mov    %r10,%r11
  401926:	4d 89 d8             	mov    %r11,%r8
  401929:	4d 89 c1             	mov    %r8,%r9
  40192c:	4d 89 ca             	mov    %r9,%r10
  40192f:	4d 89 d3             	mov    %r10,%r11
  401932:	4d 89 d8             	mov    %r11,%r8
  401935:	4d 89 c1             	mov    %r8,%r9
  401938:	4d 89 ca             	mov    %r9,%r10
  40193b:	4d 89 d3             	mov    %r10,%r11
  40193e:	4d 89 d8             	mov    %r11,%r8
  401941:	4d 89 c1             	mov    %r8,%r9
  401944:	4d 89 ca             	mov    %r9,%r10
  401947:	4d 89 d3             	mov    %r10,%r11
  40194a:	4d 89 d8             	mov    %r11,%r8
  40194d:	4d 89 c1             	mov    %r8,%r9
  401950:	4d 89 ca             	mov    %r9,%r10
  401953:	4d 89 d3             	mov    %r10,%r11
  401956:	4d 89 d8             	mov    %r11,%r8
  401959:	4d 89 c1             	mov    %r8,%r9
  40195c:	4d 89 ca             	mov    %r9,%r10
  40195f:	4d 89 d3             	mov    %r10,%r11
  401962:	4d 89 d8             	mov    %r11,%r8
  401965:	4d 89 c1             	mov    %r8,%r9
  401968:	4d 89 ca             	mov    %r9,%r10
  40196b:	4d 89 d3             	mov    %r10,%r11
  40196e:	4d 89 d8             	mov    %r11,%r8
  401971:	4d 89 c1             	mov    %r8,%r9
  401974:	4d 89 ca             	mov    %r9,%r10
  401977:	4d 89 d3             	mov    %r10,%r11
  40197a:	4d 89 d8             	mov    %r11,%r8
  40197d:	4d 89 c1             	mov    %r8,%r9
  401980:	4d 89 ca             	mov    %r9,%r10
  401983:	4d 89 d3             	mov    %r10,%r11
  401986:	4d 89 d8             	mov    %r11,%r8
  401989:	4d 89 c1             	mov    %r8,%r9
  40198c:	4d 89 ca             	mov    %r9,%r10
  40198f:	4d 89 d3             	mov    %r10,%r11
  401992:	4d 89 d8             	mov    %r11,%r8
  401995:	4d 89 c1             	mov    %r8,%r9
  401998:	4d 89 ca             	mov    %r9,%r10
  40199b:	4d 89 d3             	mov    %r10,%r11
  40199e:	4d 89 d8             	mov    %r11,%r8
  4019a1:	4d 89 c1             	mov    %r8,%r9
  4019a4:	4d 89 ca             	mov    %r9,%r10
  4019a7:	4d 89 d3             	mov    %r10,%r11
  4019aa:	4d 89 d8             	mov    %r11,%r8
  4019ad:	4d 89 c1             	mov    %r8,%r9
  4019b0:	4d 89 ca             	mov    %r9,%r10
  4019b3:	4d 89 d3             	mov    %r10,%r11
  4019b6:	4d 89 d8             	mov    %r11,%r8
  4019b9:	4d 89 c1             	mov    %r8,%r9
  4019bc:	4d 89 ca             	mov    %r9,%r10
  4019bf:	4d 89 d3             	mov    %r10,%r11
  4019c2:	4d 89 d8             	mov    %r11,%r8
  4019c5:	4d 89 c1             	mov    %r8,%r9
  4019c8:	4d 89 ca             	mov    %r9,%r10
  4019cb:	4d 89 d3             	mov    %r10,%r11
  4019ce:	4d 89 d8             	mov    %r11,%r8
  4019d1:	4d 89 c1             	mov    %r8,%r9
  4019d4:	4d 89 ca             	mov    %r9,%r10
  4019d7:	4d 89 d3             	mov    %r10,%r11
  4019da:	4d 89 d8             	mov    %r11,%r8
  4019dd:	4d 89 c1             	mov    %r8,%r9
  4019e0:	4d 89 ca             	mov    %r9,%r10
  4019e3:	4d 89 d3             	mov    %r10,%r11
  4019e6:	4d 89 d8             	mov    %r11,%r8
  4019e9:	4d 89 c1             	mov    %r8,%r9
  4019ec:	4d 89 ca             	mov    %r9,%r10
  4019ef:	4d 89 d3             	mov    %r10,%r11
  4019f2:	4d 89 d8             	mov    %r11,%r8
  4019f5:	4d 89 c1             	mov    %r8,%r9
  4019f8:	4d 89 ca             	mov    %r9,%r10
  4019fb:	4d 89 d3             	mov    %r10,%r11
  4019fe:	4d 89 d8             	mov    %r11,%r8
  401a01:	4d 89 c1             	mov    %r8,%r9
  401a04:	4d 89 ca             	mov    %r9,%r10
  401a07:	4d 89 d3             	mov    %r10,%r11
  401a0a:	4d 89 d8             	mov    %r11,%r8
  401a0d:	4d 89 c1             	mov    %r8,%r9
  401a10:	4d 89 ca             	mov    %r9,%r10
  401a13:	4d 89 d3             	mov    %r10,%r11
  401a16:	4d 89 d8             	mov    %r11,%r8
  401a19:	4d 89 c1             	mov    %r8,%r9
  401a1c:	4d 89 ca             	mov    %r9,%r10
  401a1f:	4d 89 d3             	mov    %r10,%r11
  401a22:	4d 89 d8             	mov    %r11,%r8
  401a25:	4d 89 c1             	mov    %r8,%r9
  401a28:	4d 89 ca             	mov    %r9,%r10
  401a2b:	4d 89 d3             	mov    %r10,%r11
  401a2e:	4d 89 d8             	mov    %r11,%r8
  401a31:	4d 89 c1             	mov    %r8,%r9
  401a34:	4d 89 ca             	mov    %r9,%r10
  401a37:	4d 89 d3             	mov    %r10,%r11
  401a3a:	4d 89 d8             	mov    %r11,%r8
  401a3d:	4d 89 c1             	mov    %r8,%r9
  401a40:	4d 89 ca             	mov    %r9,%r10
  401a43:	4d 89 d3             	mov    %r10,%r11
  401a46:	4d 89 d8             	mov    %r11,%r8
  401a49:	4d 89 c1             	mov    %r8,%r9
  401a4c:	4d 89 ca             	mov    %r9,%r10
  401a4f:	4d 89 d3             	mov    %r10,%r11
  401a52:	4d 89 d8             	mov    %r11,%r8
  401a55:	4d 89 c1             	mov    %r8,%r9
  401a58:	4d 89 ca             	mov    %r9,%r10
  401a5b:	4d 89 d3             	mov    %r10,%r11
  401a5e:	4d 89 d8             	mov    %r11,%r8
  401a61:	4d 89 c1             	mov    %r8,%r9
  401a64:	4d 89 ca             	mov    %r9,%r10
  401a67:	4d 89 d3             	mov    %r10,%r11
  401a6a:	4d 89 d8             	mov    %r11,%r8
  401a6d:	4d 89 c1             	mov    %r8,%r9
  401a70:	4d 89 ca             	mov    %r9,%r10
  401a73:	4d 89 d3             	mov    %r10,%r11
  401a76:	4d 89 d8             	mov    %r11,%r8
  401a79:	4d 89 c1             	mov    %r8,%r9
  401a7c:	4d 89 ca             	mov    %r9,%r10
  401a7f:	4d 89 d3             	mov    %r10,%r11
  401a82:	4d 89 d8             	mov    %r11,%r8
  401a85:	4d 89 c1             	mov    %r8,%r9
  401a88:	4d 89 ca             	mov    %r9,%r10
  401a8b:	4d 89 d3             	mov    %r10,%r11
  401a8e:	4d 89 d8             	mov    %r11,%r8
  401a91:	4d 89 c1             	mov    %r8,%r9
  401a94:	4d 89 ca             	mov    %r9,%r10
  401a97:	4d 89 d3             	mov    %r10,%r11
  401a9a:	4d 89 d8             	mov    %r11,%r8
  401a9d:	4d 89 c1             	mov    %r8,%r9
  401aa0:	4d 89 ca             	mov    %r9,%r10
  401aa3:	4d 89 d3             	mov    %r10,%r11
  401aa6:	4d 89 d8             	mov    %r11,%r8
  401aa9:	4d 89 c1             	mov    %r8,%r9
  401aac:	4d 89 ca             	mov    %r9,%r10
  401aaf:	4d 89 d3             	mov    %r10,%r11
  401ab2:	4d 89 d8             	mov    %r11,%r8
  401ab5:	4d 89 c1             	mov    %r8,%r9
  401ab8:	4d 89 ca             	mov    %r9,%r10
  401abb:	4d 89 d3             	mov    %r10,%r11
  401abe:	4d 89 d8             	mov    %r11,%r8
  401ac1:	4d 89 c1             	mov    %r8,%r9
  401ac4:	4d 89 ca             	mov    %r9,%r10
  401ac7:	4d 89 d3             	mov    %r10,%r11
  401aca:	4d 89 d8             	mov    %r11,%r8
  401acd:	4d 89 c1             	mov    %r8,%r9
  401ad0:	4d 89 ca             	mov    %r9,%r10
  401ad3:	4d 89 d3             	mov    %r10,%r11
  401ad6:	4d 89 d8             	mov    %r11,%r8
  401ad9:	4d 89 c1             	mov    %r8,%r9
  401adc:	4d 89 ca             	mov    %r9,%r10
  401adf:	4d 89 d3             	mov    %r10,%r11
  401ae2:	4d 89 d8             	mov    %r11,%r8
  401ae5:	4d 89 c1             	mov    %r8,%r9
  401ae8:	4d 89 ca             	mov    %r9,%r10
  401aeb:	4d 89 d3             	mov    %r10,%r11
  401aee:	4d 89 d8             	mov    %r11,%r8
  401af1:	4d 89 c1             	mov    %r8,%r9
  401af4:	4d 89 ca             	mov    %r9,%r10
  401af7:	4d 89 d3             	mov    %r10,%r11
  401afa:	4d 89 d8             	mov    %r11,%r8
  401afd:	4d 89 c1             	mov    %r8,%r9
  401b00:	4d 89 ca             	mov    %r9,%r10
  401b03:	4d 89 d3             	mov    %r10,%r11
  401b06:	4d 89 d8             	mov    %r11,%r8
  401b09:	4d 89 c1             	mov    %r8,%r9
  401b0c:	4d 89 ca             	mov    %r9,%r10
  401b0f:	4d 89 d3             	mov    %r10,%r11
  401b12:	4d 89 d8             	mov    %r11,%r8
  401b15:	4d 89 c1             	mov    %r8,%r9
  401b18:	4d 89 ca             	mov    %r9,%r10
  401b1b:	4d 89 d3             	mov    %r10,%r11
  401b1e:	4d 89 d8             	mov    %r11,%r8
  401b21:	4d 89 c1             	mov    %r8,%r9
  401b24:	4d 89 ca             	mov    %r9,%r10
  401b27:	4d 89 d3             	mov    %r10,%r11
  401b2a:	4d 89 d8             	mov    %r11,%r8
  401b2d:	4d 89 c1             	mov    %r8,%r9
  401b30:	4d 89 ca             	mov    %r9,%r10
  401b33:	4d 89 d3             	mov    %r10,%r11
  401b36:	4d 89 d8             	mov    %r11,%r8
  401b39:	4d 89 c1             	mov    %r8,%r9
  401b3c:	4d 89 ca             	mov    %r9,%r10
  401b3f:	4d 89 d3             	mov    %r10,%r11
  401b42:	4d 89 d8             	mov    %r11,%r8
  401b45:	4d 89 c1             	mov    %r8,%r9
  401b48:	4d 89 ca             	mov    %r9,%r10
  401b4b:	4d 89 d3             	mov    %r10,%r11
  401b4e:	4d 89 d8             	mov    %r11,%r8
  401b51:	4d 89 c1             	mov    %r8,%r9
  401b54:	4d 89 ca             	mov    %r9,%r10
  401b57:	4d 89 d3             	mov    %r10,%r11
  401b5a:	4d 89 d8             	mov    %r11,%r8
  401b5d:	4d 89 c1             	mov    %r8,%r9
  401b60:	4d 89 ca             	mov    %r9,%r10
  401b63:	4d 89 d3             	mov    %r10,%r11
  401b66:	4d 89 d8             	mov    %r11,%r8
  401b69:	4d 89 c1             	mov    %r8,%r9
  401b6c:	4d 89 ca             	mov    %r9,%r10
  401b6f:	4d 89 d3             	mov    %r10,%r11
  401b72:	4d 89 d8             	mov    %r11,%r8
  401b75:	4d 89 c1             	mov    %r8,%r9
  401b78:	4d 89 ca             	mov    %r9,%r10
  401b7b:	4d 89 d3             	mov    %r10,%r11
  401b7e:	4d 89 d8             	mov    %r11,%r8
  401b81:	4d 89 c1             	mov    %r8,%r9
  401b84:	4d 89 ca             	mov    %r9,%r10
  401b87:	4d 89 d3             	mov    %r10,%r11
  401b8a:	4d 89 d8             	mov    %r11,%r8
  401b8d:	4d 89 c1             	mov    %r8,%r9
  401b90:	4d 89 ca             	mov    %r9,%r10
  401b93:	4d 89 d3             	mov    %r10,%r11
  401b96:	4d 89 d8             	mov    %r11,%r8
  401b99:	4d 89 c1             	mov    %r8,%r9
  401b9c:	4d 89 ca             	mov    %r9,%r10
  401b9f:	4d 89 d3             	mov    %r10,%r11
  401ba2:	4d 89 d8             	mov    %r11,%r8
  401ba5:	4d 89 c1             	mov    %r8,%r9
  401ba8:	4d 89 ca             	mov    %r9,%r10
  401bab:	4d 89 d3             	mov    %r10,%r11
  401bae:	4d 89 d8             	mov    %r11,%r8
  401bb1:	4d 89 c1             	mov    %r8,%r9
  401bb4:	4d 89 ca             	mov    %r9,%r10
  401bb7:	4d 89 d3             	mov    %r10,%r11
  401bba:	4d 89 d8             	mov    %r11,%r8
  401bbd:	4d 89 c1             	mov    %r8,%r9
  401bc0:	4d 89 ca             	mov    %r9,%r10
  401bc3:	4d 89 d3             	mov    %r10,%r11
  401bc6:	4d 89 d8             	mov    %r11,%r8
  401bc9:	4d 89 c1             	mov    %r8,%r9
  401bcc:	4d 89 ca             	mov    %r9,%r10
  401bcf:	4d 89 d3             	mov    %r10,%r11
  401bd2:	4d 89 d8             	mov    %r11,%r8
  401bd5:	4d 89 c1             	mov    %r8,%r9
  401bd8:	4d 89 ca             	mov    %r9,%r10
  401bdb:	4d 89 d3             	mov    %r10,%r11
  401bde:	4d 89 d8             	mov    %r11,%r8
  401be1:	4d 89 c1             	mov    %r8,%r9
  401be4:	4d 89 ca             	mov    %r9,%r10
  401be7:	4d 89 d3             	mov    %r10,%r11
  401bea:	4d 89 d8             	mov    %r11,%r8
  401bed:	4d 89 c1             	mov    %r8,%r9
  401bf0:	4d 89 ca             	mov    %r9,%r10
  401bf3:	4d 89 d3             	mov    %r10,%r11
  401bf6:	4d 89 d8             	mov    %r11,%r8
  401bf9:	4d 89 c1             	mov    %r8,%r9
  401bfc:	4d 89 ca             	mov    %r9,%r10
  401bff:	4d 89 d3             	mov    %r10,%r11
  401c02:	4d 89 d8             	mov    %r11,%r8
  401c05:	4d 89 c1             	mov    %r8,%r9
  401c08:	4d 89 ca             	mov    %r9,%r10
  401c0b:	4d 89 d3             	mov    %r10,%r11
  401c0e:	4d 89 d8             	mov    %r11,%r8
  401c11:	4d 89 c1             	mov    %r8,%r9
  401c14:	4d 89 ca             	mov    %r9,%r10
  401c17:	4d 89 d3             	mov    %r10,%r11
  401c1a:	4d 89 d8             	mov    %r11,%r8
  401c1d:	4d 89 c1             	mov    %r8,%r9
  401c20:	4d 89 ca             	mov    %r9,%r10
  401c23:	4d 89 d3             	mov    %r10,%r11
  401c26:	4d 89 d8             	mov    %r11,%r8
  401c29:	4d 89 c1             	mov    %r8,%r9
  401c2c:	4d 89 ca             	mov    %r9,%r10
  401c2f:	4d 89 d3             	mov    %r10,%r11
  401c32:	4d 89 d8             	mov    %r11,%r8
  401c35:	4d 89 c1             	mov    %r8,%r9
  401c38:	4d 89 ca             	mov    %r9,%r10
  401c3b:	4d 89 d3             	mov    %r10,%r11
  401c3e:	4d 89 d8             	mov    %r11,%r8
  401c41:	4d 89 c1             	mov    %r8,%r9
  401c44:	4d 89 ca             	mov    %r9,%r10
  401c47:	4d 89 d3             	mov    %r10,%r11
  401c4a:	4d 89 d8             	mov    %r11,%r8
  401c4d:	4d 89 c1             	mov    %r8,%r9
  401c50:	4d 89 ca             	mov    %r9,%r10
  401c53:	4d 89 d3             	mov    %r10,%r11
  401c56:	4d 89 d8             	mov    %r11,%r8
  401c59:	4d 89 c1             	mov    %r8,%r9
  401c5c:	4d 89 ca             	mov    %r9,%r10
  401c5f:	4d 89 d3             	mov    %r10,%r11
  401c62:	4d 89 d8             	mov    %r11,%r8
  401c65:	4d 89 c1             	mov    %r8,%r9
  401c68:	4d 89 ca             	mov    %r9,%r10
  401c6b:	4d 89 d3             	mov    %r10,%r11
  401c6e:	4d 89 d8             	mov    %r11,%r8
  401c71:	4d 89 c1             	mov    %r8,%r9
  401c74:	4d 89 ca             	mov    %r9,%r10
  401c77:	4d 89 d3             	mov    %r10,%r11
  401c7a:	4d 89 d8             	mov    %r11,%r8
  401c7d:	4d 89 c1             	mov    %r8,%r9
  401c80:	4d 89 ca             	mov    %r9,%r10
  401c83:	4d 89 d3             	mov    %r10,%r11
  401c86:	4d 89 d8             	mov    %r11,%r8
  401c89:	4d 89 c1             	mov    %r8,%r9
  401c8c:	4d 89 ca             	mov    %r9,%r10
  401c8f:	4d 89 d3             	mov    %r10,%r11
  401c92:	4d 89 d8             	mov    %r11,%r8
  401c95:	4d 89 c1             	mov    %r8,%r9
  401c98:	4d 89 ca             	mov    %r9,%r10
  401c9b:	4d 89 d3             	mov    %r10,%r11
  401c9e:	4d 89 d8             	mov    %r11,%r8
  401ca1:	4d 89 c1             	mov    %r8,%r9
  401ca4:	4d 89 ca             	mov    %r9,%r10
  401ca7:	4d 89 d3             	mov    %r10,%r11
  401caa:	4d 89 d8             	mov    %r11,%r8
  401cad:	4d 89 c1             	mov    %r8,%r9
  401cb0:	4d 89 ca             	mov    %r9,%r10
  401cb3:	4d 89 d3             	mov    %r10,%r11
  401cb6:	4d 89 d8             	mov    %r11,%r8
  401cb9:	4d 89 c1             	mov    %r8,%r9
  401cbc:	4d 89 ca             	mov    %r9,%r10
  401cbf:	4d 89 d3             	mov    %r10,%r11
  401cc2:	4d 89 d8             	mov    %r11,%r8
  401cc5:	4d 89 c1             	mov    %r8,%r9
  401cc8:	4d 89 ca             	mov    %r9,%r10
  401ccb:	4d 89 d3             	mov    %r10,%r11
  401cce:	4d 89 d8             	mov    %r11,%r8
  401cd1:	4d 89 c1             	mov    %r8,%r9
  401cd4:	4d 89 ca             	mov    %r9,%r10
  401cd7:	4d 89 d3             	mov    %r10,%r11
  401cda:	4d 89 d8             	mov    %r11,%r8
  401cdd:	4d 89 c1             	mov    %r8,%r9
  401ce0:	4d 89 ca             	mov    %r9,%r10
  401ce3:	4d 89 d3             	mov    %r10,%r11
  401ce6:	4d 89 d8             	mov    %r11,%r8
  401ce9:	4d 89 c1             	mov    %r8,%r9
  401cec:	4d 89 ca             	mov    %r9,%r10
  401cef:	4d 89 d3             	mov    %r10,%r11
  401cf2:	4d 89 d8             	mov    %r11,%r8
  401cf5:	4d 89 c1             	mov    %r8,%r9
  401cf8:	4d 89 ca             	mov    %r9,%r10
  401cfb:	4d 89 d3             	mov    %r10,%r11
  401cfe:	4d 89 d8             	mov    %r11,%r8
  401d01:	4d 89 c1             	mov    %r8,%r9
  401d04:	4d 89 ca             	mov    %r9,%r10
  401d07:	4d 89 d3             	mov    %r10,%r11
  401d0a:	4d 89 d8             	mov    %r11,%r8
  401d0d:	4d 89 c1             	mov    %r8,%r9
  401d10:	4d 89 ca             	mov    %r9,%r10
  401d13:	4d 89 d3             	mov    %r10,%r11
  401d16:	4d 89 d8             	mov    %r11,%r8
  401d19:	4d 89 c1             	mov    %r8,%r9
  401d1c:	4d 89 ca             	mov    %r9,%r10
  401d1f:	4d 89 d3             	mov    %r10,%r11
  401d22:	4d 89 d8             	mov    %r11,%r8
  401d25:	4d 89 c1             	mov    %r8,%r9
  401d28:	4d 89 ca             	mov    %r9,%r10
  401d2b:	4d 89 d3             	mov    %r10,%r11
  401d2e:	4d 89 d8             	mov    %r11,%r8
  401d31:	4d 89 c1             	mov    %r8,%r9
  401d34:	4d 89 ca             	mov    %r9,%r10
  401d37:	4d 89 d3             	mov    %r10,%r11
  401d3a:	4d 89 d8             	mov    %r11,%r8
  401d3d:	4d 89 c1             	mov    %r8,%r9
  401d40:	4d 89 ca             	mov    %r9,%r10
  401d43:	4d 89 d3             	mov    %r10,%r11
  401d46:	4d 89 d8             	mov    %r11,%r8
  401d49:	4d 89 c1             	mov    %r8,%r9
  401d4c:	4d 89 ca             	mov    %r9,%r10
  401d4f:	4d 89 d3             	mov    %r10,%r11
  401d52:	4d 89 d8             	mov    %r11,%r8
  401d55:	4d 89 c1             	mov    %r8,%r9
  401d58:	4d 89 ca             	mov    %r9,%r10
  401d5b:	4d 89 d3             	mov    %r10,%r11
  401d5e:	4d 89 d8             	mov    %r11,%r8
  401d61:	4d 89 c1             	mov    %r8,%r9
  401d64:	4d 89 ca             	mov    %r9,%r10
  401d67:	4d 89 d3             	mov    %r10,%r11
  401d6a:	4d 89 d8             	mov    %r11,%r8
  401d6d:	4d 89 c1             	mov    %r8,%r9
  401d70:	4d 89 ca             	mov    %r9,%r10
  401d73:	4d 89 d3             	mov    %r10,%r11
  401d76:	4d 89 d8             	mov    %r11,%r8
  401d79:	4d 89 c1             	mov    %r8,%r9
  401d7c:	4d 89 ca             	mov    %r9,%r10
  401d7f:	4d 89 d3             	mov    %r10,%r11
  401d82:	4d 89 d8             	mov    %r11,%r8
  401d85:	4d 89 c1             	mov    %r8,%r9
  401d88:	4d 89 ca             	mov    %r9,%r10
  401d8b:	4d 89 d3             	mov    %r10,%r11
  401d8e:	4d 89 d8             	mov    %r11,%r8
  401d91:	4d 89 c1             	mov    %r8,%r9
  401d94:	4d 89 ca             	mov    %r9,%r10
  401d97:	4d 89 d3             	mov    %r10,%r11
  401d9a:	4d 89 d8             	mov    %r11,%r8
  401d9d:	4d 89 c1             	mov    %r8,%r9
  401da0:	4d 89 ca             	mov    %r9,%r10
  401da3:	4d 89 d3             	mov    %r10,%r11
  401da6:	4d 89 d8             	mov    %r11,%r8
  401da9:	4d 89 c1             	mov    %r8,%r9
  401dac:	4d 89 ca             	mov    %r9,%r10
  401daf:	4d 89 d3             	mov    %r10,%r11
  401db2:	4d 89 d8             	mov    %r11,%r8
  401db5:	4d 89 c1             	mov    %r8,%r9
  401db8:	4d 89 ca             	mov    %r9,%r10
  401dbb:	4d 89 d3             	mov    %r10,%r11
  401dbe:	4d 89 d8             	mov    %r11,%r8
  401dc1:	4d 89 c1             	mov    %r8,%r9
  401dc4:	4d 89 ca             	mov    %r9,%r10
  401dc7:	4d 89 d3             	mov    %r10,%r11
  401dca:	4d 89 d8             	mov    %r11,%r8
  401dcd:	4d 89 c1             	mov    %r8,%r9
  401dd0:	4d 89 ca             	mov    %r9,%r10
  401dd3:	4d 89 d3             	mov    %r10,%r11
  401dd6:	4d 89 d8             	mov    %r11,%r8
  401dd9:	4d 89 c1             	mov    %r8,%r9
  401ddc:	4d 89 ca             	mov    %r9,%r10
  401ddf:	4d 89 d3             	mov    %r10,%r11
  401de2:	4d 89 d8             	mov    %r11,%r8
  401de5:	4d 89 c1             	mov    %r8,%r9
  401de8:	4d 89 ca             	mov    %r9,%r10
  401deb:	4d 89 d3             	mov    %r10,%r11
  401dee:	4d 89 d8             	mov    %r11,%r8
  401df1:	4d 89 c1             	mov    %r8,%r9
  401df4:	4d 89 ca             	mov    %r9,%r10
  401df7:	4d 89 d3             	mov    %r10,%r11
  401dfa:	4d 89 d8             	mov    %r11,%r8
  401dfd:	4d 89 c1             	mov    %r8,%r9
  401e00:	4d 89 ca             	mov    %r9,%r10
  401e03:	4d 89 d3             	mov    %r10,%r11
  401e06:	4d 89 d8             	mov    %r11,%r8
  401e09:	4d 89 c1             	mov    %r8,%r9
  401e0c:	4d 89 ca             	mov    %r9,%r10
  401e0f:	4d 89 d3             	mov    %r10,%r11
  401e12:	4d 89 d8             	mov    %r11,%r8
  401e15:	4d 89 c1             	mov    %r8,%r9
  401e18:	4d 89 ca             	mov    %r9,%r10
  401e1b:	4d 89 d3             	mov    %r10,%r11
  401e1e:	4d 89 d8             	mov    %r11,%r8
  401e21:	4d 89 c1             	mov    %r8,%r9
  401e24:	4d 89 ca             	mov    %r9,%r10
  401e27:	4d 89 d3             	mov    %r10,%r11
  401e2a:	4d 89 d8             	mov    %r11,%r8
  401e2d:	4d 89 c1             	mov    %r8,%r9
  401e30:	4d 89 ca             	mov    %r9,%r10
  401e33:	4d 89 d3             	mov    %r10,%r11
  401e36:	4d 89 d8             	mov    %r11,%r8
  401e39:	4d 89 c1             	mov    %r8,%r9
  401e3c:	4d 89 ca             	mov    %r9,%r10
  401e3f:	4d 89 d3             	mov    %r10,%r11
  401e42:	4d 89 d8             	mov    %r11,%r8
  401e45:	4d 89 c1             	mov    %r8,%r9
  401e48:	4d 89 ca             	mov    %r9,%r10
  401e4b:	4d 89 d3             	mov    %r10,%r11
  401e4e:	4d 89 d8             	mov    %r11,%r8
  401e51:	4d 89 c1             	mov    %r8,%r9
  401e54:	4d 89 ca             	mov    %r9,%r10
  401e57:	4d 89 d3             	mov    %r10,%r11
  401e5a:	4d 89 d8             	mov    %r11,%r8
  401e5d:	4d 89 c1             	mov    %r8,%r9
  401e60:	4d 89 ca             	mov    %r9,%r10
  401e63:	4d 89 d3             	mov    %r10,%r11
  401e66:	4d 89 d8             	mov    %r11,%r8
  401e69:	4d 89 c1             	mov    %r8,%r9
  401e6c:	4d 89 ca             	mov    %r9,%r10
  401e6f:	4d 89 d3             	mov    %r10,%r11
  401e72:	4d 89 d8             	mov    %r11,%r8
  401e75:	4d 89 c1             	mov    %r8,%r9
  401e78:	4d 89 ca             	mov    %r9,%r10
  401e7b:	4d 89 d3             	mov    %r10,%r11
  401e7e:	4d 89 d8             	mov    %r11,%r8
  401e81:	4d 89 c1             	mov    %r8,%r9
  401e84:	4d 89 ca             	mov    %r9,%r10
  401e87:	4d 89 d3             	mov    %r10,%r11
  401e8a:	4d 89 d8             	mov    %r11,%r8
  401e8d:	4d 89 c1             	mov    %r8,%r9
  401e90:	4d 89 ca             	mov    %r9,%r10
  401e93:	4d 89 d3             	mov    %r10,%r11
  401e96:	4d 89 d8             	mov    %r11,%r8
  401e99:	4d 89 c1             	mov    %r8,%r9
  401e9c:	4d 89 ca             	mov    %r9,%r10
  401e9f:	4d 89 d3             	mov    %r10,%r11
  401ea2:	4d 89 d8             	mov    %r11,%r8
  401ea5:	4d 89 c1             	mov    %r8,%r9
  401ea8:	4d 89 ca             	mov    %r9,%r10
  401eab:	4d 89 d3             	mov    %r10,%r11
  401eae:	4d 89 d8             	mov    %r11,%r8
  401eb1:	4d 89 c1             	mov    %r8,%r9
  401eb4:	4d 89 ca             	mov    %r9,%r10
  401eb7:	4d 89 d3             	mov    %r10,%r11
  401eba:	4d 89 d8             	mov    %r11,%r8
  401ebd:	4d 89 c1             	mov    %r8,%r9
  401ec0:	4d 89 ca             	mov    %r9,%r10
  401ec3:	4d 89 d3             	mov    %r10,%r11
  401ec6:	4d 89 d8             	mov    %r11,%r8
  401ec9:	4d 89 c1             	mov    %r8,%r9
  401ecc:	4d 89 ca             	mov    %r9,%r10
  401ecf:	4d 89 d3             	mov    %r10,%r11
  401ed2:	4d 89 d8             	mov    %r11,%r8
  401ed5:	4d 89 c1             	mov    %r8,%r9
  401ed8:	4d 89 ca             	mov    %r9,%r10
  401edb:	4d 89 d3             	mov    %r10,%r11
  401ede:	4d 89 d8             	mov    %r11,%r8
  401ee1:	4d 89 c1             	mov    %r8,%r9
  401ee4:	4d 89 ca             	mov    %r9,%r10
  401ee7:	4d 89 d3             	mov    %r10,%r11
  401eea:	4d 89 d8             	mov    %r11,%r8
  401eed:	4d 89 c1             	mov    %r8,%r9
  401ef0:	4d 89 ca             	mov    %r9,%r10
  401ef3:	4d 89 d3             	mov    %r10,%r11
  401ef6:	4d 89 d8             	mov    %r11,%r8
  401ef9:	4d 89 c1             	mov    %r8,%r9
  401efc:	4d 89 ca             	mov    %r9,%r10
  401eff:	4d 89 d3             	mov    %r10,%r11
  401f02:	4d 89 d8             	mov    %r11,%r8
  401f05:	4d 89 c1             	mov    %r8,%r9
  401f08:	4d 89 ca             	mov    %r9,%r10
  401f0b:	4d 89 d3             	mov    %r10,%r11
  401f0e:	4d 89 d8             	mov    %r11,%r8
  401f11:	4d 89 c1             	mov    %r8,%r9
  401f14:	4d 89 ca             	mov    %r9,%r10
  401f17:	4d 89 d3             	mov    %r10,%r11
  401f1a:	4d 89 d8             	mov    %r11,%r8
  401f1d:	4d 89 c1             	mov    %r8,%r9
  401f20:	4d 89 ca             	mov    %r9,%r10
  401f23:	4d 89 d3             	mov    %r10,%r11
  401f26:	4d 89 d8             	mov    %r11,%r8
  401f29:	4d 89 c1             	mov    %r8,%r9
  401f2c:	4d 89 ca             	mov    %r9,%r10
  401f2f:	4d 89 d3             	mov    %r10,%r11
  401f32:	4d 89 d8             	mov    %r11,%r8
  401f35:	4d 89 c1             	mov    %r8,%r9
  401f38:	4d 89 ca             	mov    %r9,%r10
  401f3b:	4d 89 d3             	mov    %r10,%r11
  401f3e:	4d 89 d8             	mov    %r11,%r8
  401f41:	4d 89 c1             	mov    %r8,%r9
  401f44:	4d 89 ca             	mov    %r9,%r10
  401f47:	4d 89 d3             	mov    %r10,%r11
  401f4a:	4d 89 d8             	mov    %r11,%r8
  401f4d:	4d 89 c1             	mov    %r8,%r9
  401f50:	4d 89 ca             	mov    %r9,%r10
  401f53:	4d 89 d3             	mov    %r10,%r11
  401f56:	4d 89 d8             	mov    %r11,%r8
  401f59:	4d 89 c1             	mov    %r8,%r9
  401f5c:	4d 89 ca             	mov    %r9,%r10
  401f5f:	4d 89 d3             	mov    %r10,%r11
  401f62:	4d 89 d8             	mov    %r11,%r8
  401f65:	4d 89 c1             	mov    %r8,%r9
  401f68:	4d 89 ca             	mov    %r9,%r10
  401f6b:	4d 89 d3             	mov    %r10,%r11
  401f6e:	4d 89 d8             	mov    %r11,%r8
  401f71:	4d 89 c1             	mov    %r8,%r9
  401f74:	4d 89 ca             	mov    %r9,%r10
  401f77:	4d 89 d3             	mov    %r10,%r11
  401f7a:	4d 89 d8             	mov    %r11,%r8
  401f7d:	4d 89 c1             	mov    %r8,%r9
  401f80:	4d 89 ca             	mov    %r9,%r10
  401f83:	4d 89 d3             	mov    %r10,%r11
  401f86:	4d 89 d8             	mov    %r11,%r8
  401f89:	4d 89 c1             	mov    %r8,%r9
  401f8c:	4d 89 ca             	mov    %r9,%r10
  401f8f:	4d 89 d3             	mov    %r10,%r11
  401f92:	4d 89 d8             	mov    %r11,%r8
  401f95:	4d 89 c1             	mov    %r8,%r9
  401f98:	4d 89 ca             	mov    %r9,%r10
  401f9b:	4d 89 d3             	mov    %r10,%r11
  401f9e:	4d 89 d8             	mov    %r11,%r8
  401fa1:	4d 89 c1             	mov    %r8,%r9
  401fa4:	4d 89 ca             	mov    %r9,%r10
  401fa7:	4d 89 d3             	mov    %r10,%r11
  401faa:	4d 89 d8             	mov    %r11,%r8
  401fad:	4d 89 c1             	mov    %r8,%r9
  401fb0:	4d 89 ca             	mov    %r9,%r10
  401fb3:	4d 89 d3             	mov    %r10,%r11
  401fb6:	4d 89 d8             	mov    %r11,%r8
  401fb9:	4d 89 c1             	mov    %r8,%r9
  401fbc:	4d 89 ca             	mov    %r9,%r10
  401fbf:	4d 89 d3             	mov    %r10,%r11
  401fc2:	4d 89 d8             	mov    %r11,%r8
  401fc5:	4d 89 c1             	mov    %r8,%r9
  401fc8:	4d 89 ca             	mov    %r9,%r10
  401fcb:	4d 89 d3             	mov    %r10,%r11
  401fce:	4d 89 d8             	mov    %r11,%r8
  401fd1:	4d 89 c1             	mov    %r8,%r9
  401fd4:	4d 89 ca             	mov    %r9,%r10
  401fd7:	4d 89 d3             	mov    %r10,%r11
  401fda:	4d 89 d8             	mov    %r11,%r8
  401fdd:	4d 89 c1             	mov    %r8,%r9
  401fe0:	4d 89 ca             	mov    %r9,%r10
  401fe3:	4d 89 d3             	mov    %r10,%r11
  401fe6:	4d 89 d8             	mov    %r11,%r8
  401fe9:	4d 89 c1             	mov    %r8,%r9
  401fec:	4d 89 ca             	mov    %r9,%r10
  401fef:	4d 89 d3             	mov    %r10,%r11
  401ff2:	4d 89 d8             	mov    %r11,%r8
  401ff5:	4d 89 c1             	mov    %r8,%r9
  401ff8:	4d 89 ca             	mov    %r9,%r10
  401ffb:	4d 89 d3             	mov    %r10,%r11
  401ffe:	4d 89 d8             	mov    %r11,%r8
  402001:	4d 89 c1             	mov    %r8,%r9
  402004:	4d 89 ca             	mov    %r9,%r10
  402007:	4d 89 d3             	mov    %r10,%r11
  40200a:	4d 89 d8             	mov    %r11,%r8
  40200d:	4d 89 c1             	mov    %r8,%r9
  402010:	4d 89 ca             	mov    %r9,%r10
  402013:	4d 89 d3             	mov    %r10,%r11
  402016:	4d 89 d8             	mov    %r11,%r8
  402019:	4d 89 c1             	mov    %r8,%r9
  40201c:	4d 89 ca             	mov    %r9,%r10
  40201f:	4d 89 d3             	mov    %r10,%r11
  402022:	4d 89 d8             	mov    %r11,%r8
  402025:	4d 89 c1             	mov    %r8,%r9
  402028:	4d 89 ca             	mov    %r9,%r10
  40202b:	4d 89 d3             	mov    %r10,%r11
  40202e:	4d 89 d8             	mov    %r11,%r8
  402031:	4d 89 c1             	mov    %r8,%r9
  402034:	4d 89 ca             	mov    %r9,%r10
  402037:	4d 89 d3             	mov    %r10,%r11
  40203a:	4d 89 d8             	mov    %r11,%r8
  40203d:	4d 89 c1             	mov    %r8,%r9
  402040:	4d 89 ca             	mov    %r9,%r10
  402043:	4d 89 d3             	mov    %r10,%r11
  402046:	4d 89 d8             	mov    %r11,%r8
  402049:	4d 89 c1             	mov    %r8,%r9
  40204c:	4d 89 ca             	mov    %r9,%r10
  40204f:	4d 89 d3             	mov    %r10,%r11
  402052:	4d 89 d8             	mov    %r11,%r8
  402055:	4d 89 c1             	mov    %r8,%r9
  402058:	4d 89 ca             	mov    %r9,%r10
  40205b:	4d 89 d3             	mov    %r10,%r11
  40205e:	4d 89 d8             	mov    %r11,%r8
  402061:	4d 89 c1             	mov    %r8,%r9
  402064:	4d 89 ca             	mov    %r9,%r10
  402067:	4d 89 d3             	mov    %r10,%r11
  40206a:	4d 89 d8             	mov    %r11,%r8
  40206d:	4d 89 c1             	mov    %r8,%r9
  402070:	4d 89 ca             	mov    %r9,%r10
  402073:	4d 89 d3             	mov    %r10,%r11
  402076:	4d 89 d8             	mov    %r11,%r8
  402079:	4d 89 c1             	mov    %r8,%r9
  40207c:	4d 89 ca             	mov    %r9,%r10
  40207f:	4d 89 d3             	mov    %r10,%r11
  402082:	4d 89 d8             	mov    %r11,%r8
  402085:	4d 89 c1             	mov    %r8,%r9
  402088:	4d 89 ca             	mov    %r9,%r10
  40208b:	4d 89 d3             	mov    %r10,%r11
  40208e:	4d 89 d8             	mov    %r11,%r8
  402091:	4d 89 c1             	mov    %r8,%r9
  402094:	4d 89 ca             	mov    %r9,%r10
  402097:	4d 89 d3             	mov    %r10,%r11
  40209a:	4d 89 d8             	mov    %r11,%r8
  40209d:	4d 89 c1             	mov    %r8,%r9
  4020a0:	4d 89 ca             	mov    %r9,%r10
  4020a3:	4d 89 d3             	mov    %r10,%r11
  4020a6:	4d 89 d8             	mov    %r11,%r8
  4020a9:	4d 89 c1             	mov    %r8,%r9
  4020ac:	4d 89 ca             	mov    %r9,%r10
  4020af:	4d 89 d3             	mov    %r10,%r11
  4020b2:	4d 89 d8             	mov    %r11,%r8
  4020b5:	4d 89 c1             	mov    %r8,%r9
  4020b8:	4d 89 ca             	mov    %r9,%r10
  4020bb:	4d 89 d3             	mov    %r10,%r11
  4020be:	4d 89 d8             	mov    %r11,%r8
  4020c1:	4d 89 c1             	mov    %r8,%r9
  4020c4:	4d 89 ca             	mov    %r9,%r10
  4020c7:	4d 89 d3             	mov    %r10,%r11
  4020ca:	4d 89 d8             	mov    %r11,%r8
  4020cd:	4d 89 c1             	mov    %r8,%r9
  4020d0:	4d 89 ca             	mov    %r9,%r10
  4020d3:	4d 89 d3             	mov    %r10,%r11
  4020d6:	4d 89 d8             	mov    %r11,%r8
  4020d9:	4d 89 c1             	mov    %r8,%r9
  4020dc:	4d 89 ca             	mov    %r9,%r10
  4020df:	4d 89 d3             	mov    %r10,%r11
  4020e2:	4d 89 d8             	mov    %r11,%r8
  4020e5:	4d 89 c1             	mov    %r8,%r9
  4020e8:	4d 89 ca             	mov    %r9,%r10
  4020eb:	4d 89 d3             	mov    %r10,%r11
  4020ee:	4d 89 d8             	mov    %r11,%r8
  4020f1:	4d 89 c1             	mov    %r8,%r9
  4020f4:	4d 89 ca             	mov    %r9,%r10
  4020f7:	4d 89 d3             	mov    %r10,%r11
  4020fa:	4d 89 d8             	mov    %r11,%r8
  4020fd:	4d 89 c1             	mov    %r8,%r9
  402100:	4d 89 ca             	mov    %r9,%r10
  402103:	4d 89 d3             	mov    %r10,%r11
  402106:	4d 89 d8             	mov    %r11,%r8
  402109:	4d 89 c1             	mov    %r8,%r9
  40210c:	4d 89 ca             	mov    %r9,%r10
  40210f:	4d 89 d3             	mov    %r10,%r11
  402112:	4d 89 d8             	mov    %r11,%r8
  402115:	4d 89 c1             	mov    %r8,%r9
  402118:	4d 89 ca             	mov    %r9,%r10
  40211b:	4d 89 d3             	mov    %r10,%r11
  40211e:	4d 89 d8             	mov    %r11,%r8
  402121:	4d 89 c1             	mov    %r8,%r9
  402124:	4d 89 ca             	mov    %r9,%r10
  402127:	4d 89 d3             	mov    %r10,%r11
  40212a:	4d 89 d8             	mov    %r11,%r8
  40212d:	4d 89 c1             	mov    %r8,%r9
  402130:	4d 89 ca             	mov    %r9,%r10
  402133:	4d 89 d3             	mov    %r10,%r11
  402136:	4d 89 d8             	mov    %r11,%r8
  402139:	4d 89 c1             	mov    %r8,%r9
  40213c:	4d 89 ca             	mov    %r9,%r10
  40213f:	4d 89 d3             	mov    %r10,%r11
  402142:	4d 89 d8             	mov    %r11,%r8
  402145:	4d 89 c1             	mov    %r8,%r9
  402148:	4d 89 ca             	mov    %r9,%r10
  40214b:	4d 89 d3             	mov    %r10,%r11
  40214e:	4d 89 d8             	mov    %r11,%r8
  402151:	4d 89 c1             	mov    %r8,%r9
  402154:	4d 89 ca             	mov    %r9,%r10
  402157:	4d 89 d3             	mov    %r10,%r11
  40215a:	4d 89 d8             	mov    %r11,%r8
  40215d:	4d 89 c1             	mov    %r8,%r9
  402160:	4d 89 ca             	mov    %r9,%r10
  402163:	4d 89 d3             	mov    %r10,%r11
  402166:	4d 89 d8             	mov    %r11,%r8
  402169:	4d 89 c1             	mov    %r8,%r9
  40216c:	4d 89 ca             	mov    %r9,%r10
  40216f:	4d 89 d3             	mov    %r10,%r11
  402172:	4d 89 d8             	mov    %r11,%r8
  402175:	4d 89 c1             	mov    %r8,%r9
  402178:	4d 89 ca             	mov    %r9,%r10
  40217b:	4d 89 d3             	mov    %r10,%r11
  40217e:	4d 89 d8             	mov    %r11,%r8
  402181:	4d 89 c1             	mov    %r8,%r9
  402184:	4d 89 ca             	mov    %r9,%r10
  402187:	4d 89 d3             	mov    %r10,%r11
  40218a:	4d 89 d8             	mov    %r11,%r8
  40218d:	4d 89 c1             	mov    %r8,%r9
  402190:	4d 89 ca             	mov    %r9,%r10
  402193:	4d 89 d3             	mov    %r10,%r11
  402196:	4d 89 d8             	mov    %r11,%r8
  402199:	4d 89 c1             	mov    %r8,%r9
  40219c:	4d 89 ca             	mov    %r9,%r10
  40219f:	4d 89 d3             	mov    %r10,%r11
  4021a2:	4d 89 d8             	mov    %r11,%r8
  4021a5:	4d 89 c1             	mov    %r8,%r9
  4021a8:	4d 89 ca             	mov    %r9,%r10
  4021ab:	4d 89 d3             	mov    %r10,%r11
  4021ae:	4d 89 d8             	mov    %r11,%r8
  4021b1:	4d 89 c1             	mov    %r8,%r9
  4021b4:	4d 89 ca             	mov    %r9,%r10
  4021b7:	4d 89 d3             	mov    %r10,%r11
  4021ba:	4d 89 d8             	mov    %r11,%r8
  4021bd:	4d 89 c1             	mov    %r8,%r9
  4021c0:	4d 89 ca             	mov    %r9,%r10
  4021c3:	4d 89 d3             	mov    %r10,%r11
  4021c6:	4d 89 d8             	mov    %r11,%r8
  4021c9:	4d 89 c1             	mov    %r8,%r9
  4021cc:	4d 89 ca             	mov    %r9,%r10
  4021cf:	4d 89 d3             	mov    %r10,%r11
  4021d2:	4d 89 d8             	mov    %r11,%r8
  4021d5:	4d 89 c1             	mov    %r8,%r9
  4021d8:	4d 89 ca             	mov    %r9,%r10
  4021db:	4d 89 d3             	mov    %r10,%r11
  4021de:	4d 89 d8             	mov    %r11,%r8
  4021e1:	4d 89 c1             	mov    %r8,%r9
  4021e4:	4d 89 ca             	mov    %r9,%r10
  4021e7:	4d 89 d3             	mov    %r10,%r11
  4021ea:	4d 89 d8             	mov    %r11,%r8
  4021ed:	4d 89 c1             	mov    %r8,%r9
  4021f0:	4d 89 ca             	mov    %r9,%r10
  4021f3:	4d 89 d3             	mov    %r10,%r11
  4021f6:	4d 89 d8             	mov    %r11,%r8
  4021f9:	4d 89 c1             	mov    %r8,%r9
  4021fc:	4d 89 ca             	mov    %r9,%r10
  4021ff:	4d 89 d3             	mov    %r10,%r11
  402202:	4d 89 d8             	mov    %r11,%r8
  402205:	4d 89 c1             	mov    %r8,%r9
  402208:	4d 89 ca             	mov    %r9,%r10
  40220b:	4d 89 d3             	mov    %r10,%r11
  40220e:	4d 89 d8             	mov    %r11,%r8
  402211:	4d 89 c1             	mov    %r8,%r9
  402214:	4d 89 ca             	mov    %r9,%r10
  402217:	4d 89 d3             	mov    %r10,%r11
  40221a:	4d 89 d8             	mov    %r11,%r8
  40221d:	4d 89 c1             	mov    %r8,%r9
  402220:	4d 89 ca             	mov    %r9,%r10
  402223:	4d 89 d3             	mov    %r10,%r11
  402226:	4d 89 d8             	mov    %r11,%r8
  402229:	4d 89 c1             	mov    %r8,%r9
  40222c:	4d 89 ca             	mov    %r9,%r10
  40222f:	4d 89 d3             	mov    %r10,%r11
  402232:	4d 89 d8             	mov    %r11,%r8
  402235:	4d 89 c1             	mov    %r8,%r9
  402238:	4d 89 ca             	mov    %r9,%r10
  40223b:	4d 89 d3             	mov    %r10,%r11
  40223e:	4d 89 d8             	mov    %r11,%r8
  402241:	4d 89 c1             	mov    %r8,%r9
  402244:	4d 89 ca             	mov    %r9,%r10
  402247:	4d 89 d3             	mov    %r10,%r11
  40224a:	4d 89 d8             	mov    %r11,%r8
  40224d:	4d 89 c1             	mov    %r8,%r9
  402250:	4d 89 ca             	mov    %r9,%r10
  402253:	4d 89 d3             	mov    %r10,%r11
  402256:	4d 89 d8             	mov    %r11,%r8
  402259:	4d 89 c1             	mov    %r8,%r9
  40225c:	4d 89 ca             	mov    %r9,%r10
  40225f:	4d 89 d3             	mov    %r10,%r11
  402262:	4d 89 d8             	mov    %r11,%r8
  402265:	4d 89 c1             	mov    %r8,%r9
  402268:	4d 89 ca             	mov    %r9,%r10
  40226b:	4d 89 d3             	mov    %r10,%r11
  40226e:	4d 89 d8             	mov    %r11,%r8
  402271:	4d 89 c1             	mov    %r8,%r9
  402274:	4d 89 ca             	mov    %r9,%r10
  402277:	4d 89 d3             	mov    %r10,%r11
  40227a:	4d 89 d8             	mov    %r11,%r8
  40227d:	4d 89 c1             	mov    %r8,%r9
  402280:	4d 89 ca             	mov    %r9,%r10
  402283:	4d 89 d3             	mov    %r10,%r11
  402286:	4d 89 d8             	mov    %r11,%r8
  402289:	4d 89 c1             	mov    %r8,%r9
  40228c:	4d 89 ca             	mov    %r9,%r10
  40228f:	4d 89 d3             	mov    %r10,%r11
  402292:	4d 89 d8             	mov    %r11,%r8
  402295:	4d 89 c1             	mov    %r8,%r9
  402298:	4d 89 ca             	mov    %r9,%r10
  40229b:	4d 89 d3             	mov    %r10,%r11
  40229e:	4d 89 d8             	mov    %r11,%r8
  4022a1:	4d 89 c1             	mov    %r8,%r9
  4022a4:	4d 89 ca             	mov    %r9,%r10
  4022a7:	4d 89 d3             	mov    %r10,%r11
  4022aa:	4d 89 d8             	mov    %r11,%r8
  4022ad:	4d 89 c1             	mov    %r8,%r9
  4022b0:	4d 89 ca             	mov    %r9,%r10
  4022b3:	4d 89 d3             	mov    %r10,%r11
  4022b6:	4d 89 d8             	mov    %r11,%r8
  4022b9:	4d 89 c1             	mov    %r8,%r9
  4022bc:	4d 89 ca             	mov    %r9,%r10
  4022bf:	4d 89 d3             	mov    %r10,%r11
  4022c2:	4d 89 d8             	mov    %r11,%r8
  4022c5:	4d 89 c1             	mov    %r8,%r9
  4022c8:	4d 89 ca             	mov    %r9,%r10
  4022cb:	4d 89 d3             	mov    %r10,%r11
  4022ce:	4d 89 d8             	mov    %r11,%r8
  4022d1:	4d 89 c1             	mov    %r8,%r9
  4022d4:	4d 89 ca             	mov    %r9,%r10
  4022d7:	4d 89 d3             	mov    %r10,%r11
  4022da:	4d 89 d8             	mov    %r11,%r8
  4022dd:	4d 89 c1             	mov    %r8,%r9
  4022e0:	4d 89 ca             	mov    %r9,%r10
  4022e3:	4d 89 d3             	mov    %r10,%r11
  4022e6:	4d 89 d8             	mov    %r11,%r8
  4022e9:	4d 89 c1             	mov    %r8,%r9
  4022ec:	4d 89 ca             	mov    %r9,%r10
  4022ef:	4d 89 d3             	mov    %r10,%r11
  4022f2:	4d 89 d8             	mov    %r11,%r8
  4022f5:	4d 89 c1             	mov    %r8,%r9
  4022f8:	4d 89 ca             	mov    %r9,%r10
  4022fb:	4d 89 d3             	mov    %r10,%r11
  4022fe:	4d 89 d8             	mov    %r11,%r8
  402301:	4d 89 c1             	mov    %r8,%r9
  402304:	4d 89 ca             	mov    %r9,%r10
  402307:	4d 89 d3             	mov    %r10,%r11
  40230a:	4d 89 d8             	mov    %r11,%r8
  40230d:	4d 89 c1             	mov    %r8,%r9
  402310:	4d 89 ca             	mov    %r9,%r10
  402313:	4d 89 d3             	mov    %r10,%r11
  402316:	4d 89 d8             	mov    %r11,%r8
  402319:	4d 89 c1             	mov    %r8,%r9
  40231c:	4d 89 ca             	mov    %r9,%r10
  40231f:	4d 89 d3             	mov    %r10,%r11
  402322:	4d 89 d8             	mov    %r11,%r8
  402325:	4d 89 c1             	mov    %r8,%r9
  402328:	4d 89 ca             	mov    %r9,%r10
  40232b:	4d 89 d3             	mov    %r10,%r11
  40232e:	4d 89 d8             	mov    %r11,%r8
  402331:	4d 89 c1             	mov    %r8,%r9
  402334:	4d 89 ca             	mov    %r9,%r10
  402337:	4d 89 d3             	mov    %r10,%r11
  40233a:	4d 89 d8             	mov    %r11,%r8
  40233d:	4d 89 c1             	mov    %r8,%r9
  402340:	4d 89 ca             	mov    %r9,%r10
  402343:	4d 89 d3             	mov    %r10,%r11
  402346:	4d 89 d8             	mov    %r11,%r8
  402349:	4d 89 c1             	mov    %r8,%r9
  40234c:	4d 89 ca             	mov    %r9,%r10
  40234f:	4d 89 d3             	mov    %r10,%r11
  402352:	4d 89 d8             	mov    %r11,%r8
  402355:	4d 89 c1             	mov    %r8,%r9
  402358:	4d 89 ca             	mov    %r9,%r10
  40235b:	4d 89 d3             	mov    %r10,%r11
  40235e:	4d 89 d8             	mov    %r11,%r8
  402361:	4d 89 c1             	mov    %r8,%r9
  402364:	4d 89 ca             	mov    %r9,%r10
  402367:	4d 89 d3             	mov    %r10,%r11
  40236a:	4d 89 d8             	mov    %r11,%r8
  40236d:	4d 89 c1             	mov    %r8,%r9
  402370:	4d 89 ca             	mov    %r9,%r10
  402373:	4d 89 d3             	mov    %r10,%r11
  402376:	4d 89 d8             	mov    %r11,%r8
  402379:	4d 89 c1             	mov    %r8,%r9
  40237c:	4d 89 ca             	mov    %r9,%r10
  40237f:	4d 89 d3             	mov    %r10,%r11
  402382:	4d 89 d8             	mov    %r11,%r8
  402385:	4d 89 c1             	mov    %r8,%r9
  402388:	4d 89 ca             	mov    %r9,%r10
  40238b:	4d 89 d3             	mov    %r10,%r11
  40238e:	4d 89 d8             	mov    %r11,%r8
  402391:	4d 89 c1             	mov    %r8,%r9
  402394:	4d 89 ca             	mov    %r9,%r10
  402397:	4d 89 d3             	mov    %r10,%r11
  40239a:	4d 89 d8             	mov    %r11,%r8
  40239d:	4d 89 c1             	mov    %r8,%r9
  4023a0:	4d 89 ca             	mov    %r9,%r10
  4023a3:	4d 89 d3             	mov    %r10,%r11
  4023a6:	4d 89 d8             	mov    %r11,%r8
  4023a9:	4d 89 c1             	mov    %r8,%r9
  4023ac:	4d 89 ca             	mov    %r9,%r10
  4023af:	4d 89 d3             	mov    %r10,%r11
  4023b2:	4d 89 d8             	mov    %r11,%r8
  4023b5:	4d 89 c1             	mov    %r8,%r9
  4023b8:	4d 89 ca             	mov    %r9,%r10
  4023bb:	4d 89 d3             	mov    %r10,%r11
  4023be:	4d 89 d8             	mov    %r11,%r8
  4023c1:	4d 89 c1             	mov    %r8,%r9
  4023c4:	4d 89 ca             	mov    %r9,%r10
  4023c7:	4d 89 d3             	mov    %r10,%r11
  4023ca:	4d 89 d8             	mov    %r11,%r8
  4023cd:	4d 89 c1             	mov    %r8,%r9
  4023d0:	4d 89 ca             	mov    %r9,%r10
  4023d3:	4d 89 d3             	mov    %r10,%r11
  4023d6:	4d 89 d8             	mov    %r11,%r8
  4023d9:	4d 89 c1             	mov    %r8,%r9
  4023dc:	4d 89 ca             	mov    %r9,%r10
  4023df:	4d 89 d3             	mov    %r10,%r11
  4023e2:	4d 89 d8             	mov    %r11,%r8
  4023e5:	4d 89 c1             	mov    %r8,%r9
  4023e8:	4d 89 ca             	mov    %r9,%r10
  4023eb:	4d 89 d3             	mov    %r10,%r11
  4023ee:	4d 89 d8             	mov    %r11,%r8
  4023f1:	4d 89 c1             	mov    %r8,%r9
  4023f4:	4d 89 ca             	mov    %r9,%r10
  4023f7:	4d 89 d3             	mov    %r10,%r11
  4023fa:	4d 89 d8             	mov    %r11,%r8
  4023fd:	4d 89 c1             	mov    %r8,%r9
  402400:	4d 89 ca             	mov    %r9,%r10
  402403:	4d 89 d3             	mov    %r10,%r11
  402406:	4d 89 d8             	mov    %r11,%r8
  402409:	4d 89 c1             	mov    %r8,%r9
  40240c:	4d 89 ca             	mov    %r9,%r10
  40240f:	4d 89 d3             	mov    %r10,%r11
  402412:	4d 89 d8             	mov    %r11,%r8
  402415:	4d 89 c1             	mov    %r8,%r9
  402418:	4d 89 ca             	mov    %r9,%r10
  40241b:	4d 89 d3             	mov    %r10,%r11
  40241e:	4d 89 d8             	mov    %r11,%r8
  402421:	4d 89 c1             	mov    %r8,%r9
  402424:	4d 89 ca             	mov    %r9,%r10
  402427:	4d 89 d3             	mov    %r10,%r11
  40242a:	4d 89 d8             	mov    %r11,%r8
  40242d:	4d 89 c1             	mov    %r8,%r9
  402430:	4d 89 ca             	mov    %r9,%r10
  402433:	4d 89 d3             	mov    %r10,%r11
  402436:	4d 89 d8             	mov    %r11,%r8
  402439:	4d 89 c1             	mov    %r8,%r9
  40243c:	4d 89 ca             	mov    %r9,%r10
  40243f:	4d 89 d3             	mov    %r10,%r11
  402442:	4d 89 d8             	mov    %r11,%r8
  402445:	4d 89 c1             	mov    %r8,%r9
  402448:	4d 89 ca             	mov    %r9,%r10
  40244b:	4d 89 d3             	mov    %r10,%r11
  40244e:	4d 89 d8             	mov    %r11,%r8
  402451:	4d 89 c1             	mov    %r8,%r9
  402454:	4d 89 ca             	mov    %r9,%r10
  402457:	4d 89 d3             	mov    %r10,%r11
  40245a:	4d 89 d8             	mov    %r11,%r8
  40245d:	4d 89 c1             	mov    %r8,%r9
  402460:	4d 89 ca             	mov    %r9,%r10
  402463:	4d 89 d3             	mov    %r10,%r11
  402466:	4d 89 d8             	mov    %r11,%r8
  402469:	4d 89 c1             	mov    %r8,%r9
  40246c:	4d 89 ca             	mov    %r9,%r10
  40246f:	4d 89 d3             	mov    %r10,%r11
  402472:	4d 89 d8             	mov    %r11,%r8
  402475:	4d 89 c1             	mov    %r8,%r9
  402478:	4d 89 ca             	mov    %r9,%r10
  40247b:	4d 89 d3             	mov    %r10,%r11
  40247e:	4d 89 d8             	mov    %r11,%r8
  402481:	4d 89 c1             	mov    %r8,%r9
  402484:	4d 89 ca             	mov    %r9,%r10
  402487:	4d 89 d3             	mov    %r10,%r11
  40248a:	4d 89 d8             	mov    %r11,%r8
  40248d:	4d 89 c1             	mov    %r8,%r9
  402490:	4d 89 ca             	mov    %r9,%r10
  402493:	4d 89 d3             	mov    %r10,%r11
  402496:	4d 89 d8             	mov    %r11,%r8
  402499:	4d 89 c1             	mov    %r8,%r9
  40249c:	4d 89 ca             	mov    %r9,%r10
  40249f:	4d 89 d3             	mov    %r10,%r11
  4024a2:	4d 89 d8             	mov    %r11,%r8
  4024a5:	4d 89 c1             	mov    %r8,%r9
  4024a8:	4d 89 ca             	mov    %r9,%r10
  4024ab:	4d 89 d3             	mov    %r10,%r11
  4024ae:	4d 89 d8             	mov    %r11,%r8
  4024b1:	4d 89 c1             	mov    %r8,%r9
  4024b4:	4d 89 ca             	mov    %r9,%r10
  4024b7:	4d 89 d3             	mov    %r10,%r11
  4024ba:	4d 89 d8             	mov    %r11,%r8
  4024bd:	4d 89 c1             	mov    %r8,%r9
  4024c0:	4d 89 ca             	mov    %r9,%r10
  4024c3:	4d 89 d3             	mov    %r10,%r11
  4024c6:	4d 89 d8             	mov    %r11,%r8
  4024c9:	4d 89 c1             	mov    %r8,%r9
  4024cc:	4d 89 ca             	mov    %r9,%r10
  4024cf:	4d 89 d3             	mov    %r10,%r11
  4024d2:	4d 89 d8             	mov    %r11,%r8
  4024d5:	4d 89 c1             	mov    %r8,%r9
  4024d8:	4d 89 ca             	mov    %r9,%r10
  4024db:	4d 89 d3             	mov    %r10,%r11
  4024de:	4d 89 d8             	mov    %r11,%r8
  4024e1:	4d 89 c1             	mov    %r8,%r9
  4024e4:	4d 89 ca             	mov    %r9,%r10
  4024e7:	4d 89 d3             	mov    %r10,%r11
  4024ea:	4d 89 d8             	mov    %r11,%r8
  4024ed:	4d 89 c1             	mov    %r8,%r9
  4024f0:	4d 89 ca             	mov    %r9,%r10
  4024f3:	4d 89 d3             	mov    %r10,%r11
  4024f6:	4d 89 d8             	mov    %r11,%r8
  4024f9:	4d 89 c1             	mov    %r8,%r9
  4024fc:	4d 89 ca             	mov    %r9,%r10
  4024ff:	4d 89 d3             	mov    %r10,%r11
  402502:	4d 89 d8             	mov    %r11,%r8
  402505:	4d 89 c1             	mov    %r8,%r9
  402508:	4d 89 ca             	mov    %r9,%r10
  40250b:	4d 89 d3             	mov    %r10,%r11
  40250e:	4d 89 d8             	mov    %r11,%r8
  402511:	4d 89 c1             	mov    %r8,%r9
  402514:	4d 89 ca             	mov    %r9,%r10
  402517:	4d 89 d3             	mov    %r10,%r11
  40251a:	4d 89 d8             	mov    %r11,%r8
  40251d:	4d 89 c1             	mov    %r8,%r9
  402520:	4d 89 ca             	mov    %r9,%r10
  402523:	4d 89 d3             	mov    %r10,%r11
  402526:	4d 89 d8             	mov    %r11,%r8
  402529:	4d 89 c1             	mov    %r8,%r9
  40252c:	4d 89 ca             	mov    %r9,%r10
  40252f:	4d 89 d3             	mov    %r10,%r11
  402532:	4d 89 d8             	mov    %r11,%r8
  402535:	4d 89 c1             	mov    %r8,%r9
  402538:	4d 89 ca             	mov    %r9,%r10
  40253b:	4d 89 d3             	mov    %r10,%r11
  40253e:	4d 89 d8             	mov    %r11,%r8
  402541:	4d 89 c1             	mov    %r8,%r9
  402544:	4d 89 ca             	mov    %r9,%r10
  402547:	4d 89 d3             	mov    %r10,%r11
  40254a:	4d 89 d8             	mov    %r11,%r8
  40254d:	4d 89 c1             	mov    %r8,%r9
  402550:	4d 89 ca             	mov    %r9,%r10
  402553:	4d 89 d3             	mov    %r10,%r11
  402556:	4d 89 d8             	mov    %r11,%r8
  402559:	4d 89 c1             	mov    %r8,%r9
  40255c:	4d 89 ca             	mov    %r9,%r10
  40255f:	4d 89 d3             	mov    %r10,%r11
  402562:	4d 89 d8             	mov    %r11,%r8
  402565:	4d 89 c1             	mov    %r8,%r9
  402568:	4d 89 ca             	mov    %r9,%r10
  40256b:	4d 89 d3             	mov    %r10,%r11
  40256e:	4d 89 d8             	mov    %r11,%r8
  402571:	4d 89 c1             	mov    %r8,%r9
  402574:	4d 89 ca             	mov    %r9,%r10
  402577:	4d 89 d3             	mov    %r10,%r11
  40257a:	4d 89 d8             	mov    %r11,%r8
  40257d:	4d 89 c1             	mov    %r8,%r9
  402580:	4d 89 ca             	mov    %r9,%r10
  402583:	4d 89 d3             	mov    %r10,%r11
  402586:	4d 89 d8             	mov    %r11,%r8
  402589:	4d 89 c1             	mov    %r8,%r9
  40258c:	4d 89 ca             	mov    %r9,%r10
  40258f:	4d 89 d3             	mov    %r10,%r11
  402592:	4d 89 d8             	mov    %r11,%r8
  402595:	4d 89 c1             	mov    %r8,%r9
  402598:	4d 89 ca             	mov    %r9,%r10
  40259b:	4d 89 d3             	mov    %r10,%r11
  40259e:	4d 89 d8             	mov    %r11,%r8
  4025a1:	4d 89 c1             	mov    %r8,%r9
  4025a4:	4d 89 ca             	mov    %r9,%r10
  4025a7:	4d 89 d3             	mov    %r10,%r11
  4025aa:	4d 89 d8             	mov    %r11,%r8
  4025ad:	4d 89 c1             	mov    %r8,%r9
  4025b0:	4d 89 ca             	mov    %r9,%r10
  4025b3:	4d 89 d3             	mov    %r10,%r11
  4025b6:	4d 89 d8             	mov    %r11,%r8
  4025b9:	4d 89 c1             	mov    %r8,%r9
  4025bc:	4d 89 ca             	mov    %r9,%r10
  4025bf:	4d 89 d3             	mov    %r10,%r11
  4025c2:	4d 89 d8             	mov    %r11,%r8
  4025c5:	4d 89 c1             	mov    %r8,%r9
  4025c8:	4d 89 ca             	mov    %r9,%r10
  4025cb:	4d 89 d3             	mov    %r10,%r11
  4025ce:	4d 89 d8             	mov    %r11,%r8
  4025d1:	4d 89 c1             	mov    %r8,%r9
  4025d4:	4d 89 ca             	mov    %r9,%r10
  4025d7:	4d 89 d3             	mov    %r10,%r11
  4025da:	4d 89 d8             	mov    %r11,%r8
  4025dd:	4d 89 c1             	mov    %r8,%r9
  4025e0:	4d 89 ca             	mov    %r9,%r10
  4025e3:	4d 89 d3             	mov    %r10,%r11
  4025e6:	4d 89 d8             	mov    %r11,%r8
  4025e9:	4d 89 c1             	mov    %r8,%r9
  4025ec:	4d 89 ca             	mov    %r9,%r10
  4025ef:	4d 89 d3             	mov    %r10,%r11
  4025f2:	4d 89 d8             	mov    %r11,%r8
  4025f5:	4d 89 c1             	mov    %r8,%r9
  4025f8:	4d 89 ca             	mov    %r9,%r10
  4025fb:	4d 89 d3             	mov    %r10,%r11
  4025fe:	4d 89 d8             	mov    %r11,%r8
  402601:	4d 89 c1             	mov    %r8,%r9
  402604:	4d 89 ca             	mov    %r9,%r10
  402607:	4d 89 d3             	mov    %r10,%r11
  40260a:	4d 89 d8             	mov    %r11,%r8
  40260d:	4d 89 c1             	mov    %r8,%r9
  402610:	4d 89 ca             	mov    %r9,%r10
  402613:	4d 89 d3             	mov    %r10,%r11
  402616:	4d 89 d8             	mov    %r11,%r8
  402619:	4d 89 c1             	mov    %r8,%r9
  40261c:	4d 89 ca             	mov    %r9,%r10
  40261f:	4d 89 d3             	mov    %r10,%r11
  402622:	4d 89 d8             	mov    %r11,%r8
  402625:	4d 89 c1             	mov    %r8,%r9
  402628:	4d 89 ca             	mov    %r9,%r10
  40262b:	4d 89 d3             	mov    %r10,%r11
  40262e:	4d 89 d8             	mov    %r11,%r8
  402631:	4d 89 c1             	mov    %r8,%r9
  402634:	4d 89 ca             	mov    %r9,%r10
  402637:	4d 89 d3             	mov    %r10,%r11
  40263a:	4d 89 d8             	mov    %r11,%r8
  40263d:	4d 89 c1             	mov    %r8,%r9
  402640:	4d 89 ca             	mov    %r9,%r10
  402643:	4d 89 d3             	mov    %r10,%r11
  402646:	4d 89 d8             	mov    %r11,%r8
  402649:	4d 89 c1             	mov    %r8,%r9
  40264c:	4d 89 ca             	mov    %r9,%r10
  40264f:	4d 89 d3             	mov    %r10,%r11
  402652:	4d 89 d8             	mov    %r11,%r8
  402655:	4d 89 c1             	mov    %r8,%r9
  402658:	4d 89 ca             	mov    %r9,%r10
  40265b:	4d 89 d3             	mov    %r10,%r11
  40265e:	4d 89 d8             	mov    %r11,%r8
  402661:	4d 89 c1             	mov    %r8,%r9
  402664:	4d 89 ca             	mov    %r9,%r10
  402667:	4d 89 d3             	mov    %r10,%r11
  40266a:	4d 89 d8             	mov    %r11,%r8
  40266d:	4d 89 c1             	mov    %r8,%r9
  402670:	4d 89 ca             	mov    %r9,%r10
  402673:	4d 89 d3             	mov    %r10,%r11
  402676:	4d 89 d8             	mov    %r11,%r8
  402679:	4d 89 c1             	mov    %r8,%r9
  40267c:	4d 89 ca             	mov    %r9,%r10
  40267f:	4d 89 d3             	mov    %r10,%r11
  402682:	4d 89 d8             	mov    %r11,%r8
  402685:	4d 89 c1             	mov    %r8,%r9
  402688:	4d 89 ca             	mov    %r9,%r10
  40268b:	4d 89 d3             	mov    %r10,%r11
  40268e:	4d 89 d8             	mov    %r11,%r8
  402691:	4d 89 c1             	mov    %r8,%r9
  402694:	4d 89 ca             	mov    %r9,%r10
  402697:	4d 89 d3             	mov    %r10,%r11
  40269a:	4d 89 d8             	mov    %r11,%r8
  40269d:	4d 89 c1             	mov    %r8,%r9
  4026a0:	4d 89 ca             	mov    %r9,%r10
  4026a3:	4d 89 d3             	mov    %r10,%r11
  4026a6:	4d 89 d8             	mov    %r11,%r8
  4026a9:	4d 89 c1             	mov    %r8,%r9
  4026ac:	4d 89 ca             	mov    %r9,%r10
  4026af:	4d 89 d3             	mov    %r10,%r11
  4026b2:	4d 89 d8             	mov    %r11,%r8
  4026b5:	4d 89 c1             	mov    %r8,%r9
  4026b8:	4d 89 ca             	mov    %r9,%r10
  4026bb:	4d 89 d3             	mov    %r10,%r11
  4026be:	4d 89 d8             	mov    %r11,%r8
  4026c1:	4d 89 c1             	mov    %r8,%r9
  4026c4:	4d 89 ca             	mov    %r9,%r10
  4026c7:	4d 89 d3             	mov    %r10,%r11
  4026ca:	4d 89 d8             	mov    %r11,%r8
  4026cd:	4d 89 c1             	mov    %r8,%r9
  4026d0:	4d 89 ca             	mov    %r9,%r10
  4026d3:	4d 89 d3             	mov    %r10,%r11
  4026d6:	4d 89 d8             	mov    %r11,%r8
  4026d9:	4d 89 c1             	mov    %r8,%r9
  4026dc:	4d 89 ca             	mov    %r9,%r10
  4026df:	4d 89 d3             	mov    %r10,%r11
  4026e2:	4d 89 d8             	mov    %r11,%r8
  4026e5:	4d 89 c1             	mov    %r8,%r9
  4026e8:	4d 89 ca             	mov    %r9,%r10
  4026eb:	4d 89 d3             	mov    %r10,%r11
  4026ee:	4d 89 d8             	mov    %r11,%r8
  4026f1:	4d 89 c1             	mov    %r8,%r9
  4026f4:	4d 89 ca             	mov    %r9,%r10
  4026f7:	4d 89 d3             	mov    %r10,%r11
  4026fa:	4d 89 d8             	mov    %r11,%r8
  4026fd:	4d 89 c1             	mov    %r8,%r9
  402700:	4d 89 ca             	mov    %r9,%r10
  402703:	4d 89 d3             	mov    %r10,%r11
  402706:	4d 89 d8             	mov    %r11,%r8
  402709:	4d 89 c1             	mov    %r8,%r9
  40270c:	4d 89 ca             	mov    %r9,%r10
  40270f:	4d 89 d3             	mov    %r10,%r11
  402712:	4d 89 d8             	mov    %r11,%r8
  402715:	4d 89 c1             	mov    %r8,%r9
  402718:	4d 89 ca             	mov    %r9,%r10
  40271b:	4d 89 d3             	mov    %r10,%r11
  40271e:	4d 89 d8             	mov    %r11,%r8
  402721:	4d 89 c1             	mov    %r8,%r9
  402724:	4d 89 ca             	mov    %r9,%r10
  402727:	4d 89 d3             	mov    %r10,%r11
  40272a:	4d 89 d8             	mov    %r11,%r8
  40272d:	4d 89 c1             	mov    %r8,%r9
  402730:	4d 89 ca             	mov    %r9,%r10
  402733:	4d 89 d3             	mov    %r10,%r11
  402736:	4d 89 d8             	mov    %r11,%r8
  402739:	4d 89 c1             	mov    %r8,%r9
  40273c:	4d 89 ca             	mov    %r9,%r10
  40273f:	4d 89 d3             	mov    %r10,%r11
  402742:	4d 89 d8             	mov    %r11,%r8
  402745:	4d 89 c1             	mov    %r8,%r9
  402748:	4d 89 ca             	mov    %r9,%r10
  40274b:	4d 89 d3             	mov    %r10,%r11
  40274e:	4d 89 d8             	mov    %r11,%r8
  402751:	4d 89 c1             	mov    %r8,%r9
  402754:	4d 89 ca             	mov    %r9,%r10
  402757:	4d 89 d3             	mov    %r10,%r11
  40275a:	4d 89 d8             	mov    %r11,%r8
  40275d:	4d 89 c1             	mov    %r8,%r9
  402760:	4d 89 ca             	mov    %r9,%r10
  402763:	4d 89 d3             	mov    %r10,%r11
  402766:	4d 89 d8             	mov    %r11,%r8
  402769:	4d 89 c1             	mov    %r8,%r9
  40276c:	4d 89 ca             	mov    %r9,%r10
  40276f:	4d 89 d3             	mov    %r10,%r11
  402772:	4d 89 d8             	mov    %r11,%r8
  402775:	4d 89 c1             	mov    %r8,%r9
  402778:	4d 89 ca             	mov    %r9,%r10
  40277b:	4d 89 d3             	mov    %r10,%r11
  40277e:	4d 89 d8             	mov    %r11,%r8
  402781:	4d 89 c1             	mov    %r8,%r9
  402784:	4d 89 ca             	mov    %r9,%r10
  402787:	4d 89 d3             	mov    %r10,%r11
  40278a:	4d 89 d8             	mov    %r11,%r8
  40278d:	4d 89 c1             	mov    %r8,%r9
  402790:	4d 89 ca             	mov    %r9,%r10
  402793:	4d 89 d3             	mov    %r10,%r11
  402796:	4d 89 d8             	mov    %r11,%r8
  402799:	4d 89 c1             	mov    %r8,%r9
  40279c:	4d 89 ca             	mov    %r9,%r10
  40279f:	4d 89 d3             	mov    %r10,%r11
  4027a2:	4d 89 d8             	mov    %r11,%r8
  4027a5:	4d 89 c1             	mov    %r8,%r9
  4027a8:	4d 89 ca             	mov    %r9,%r10
  4027ab:	4d 89 d3             	mov    %r10,%r11
  4027ae:	4d 89 d8             	mov    %r11,%r8
  4027b1:	4d 89 c1             	mov    %r8,%r9
  4027b4:	4d 89 ca             	mov    %r9,%r10
  4027b7:	4d 89 d3             	mov    %r10,%r11
  4027ba:	4d 89 d8             	mov    %r11,%r8
  4027bd:	4d 89 c1             	mov    %r8,%r9
  4027c0:	4d 89 ca             	mov    %r9,%r10
  4027c3:	4d 89 d3             	mov    %r10,%r11
  4027c6:	4d 89 d8             	mov    %r11,%r8
  4027c9:	4d 89 c1             	mov    %r8,%r9
  4027cc:	4d 89 ca             	mov    %r9,%r10
  4027cf:	4d 89 d3             	mov    %r10,%r11
  4027d2:	4d 89 d8             	mov    %r11,%r8
  4027d5:	4d 89 c1             	mov    %r8,%r9
  4027d8:	4d 89 ca             	mov    %r9,%r10
  4027db:	4d 89 d3             	mov    %r10,%r11
  4027de:	4d 89 d8             	mov    %r11,%r8
  4027e1:	4d 89 c1             	mov    %r8,%r9
  4027e4:	4d 89 ca             	mov    %r9,%r10
  4027e7:	4d 89 d3             	mov    %r10,%r11
  4027ea:	4d 89 d8             	mov    %r11,%r8
  4027ed:	4d 89 c1             	mov    %r8,%r9
  4027f0:	4d 89 ca             	mov    %r9,%r10
  4027f3:	4d 89 d3             	mov    %r10,%r11
  4027f6:	4d 89 d8             	mov    %r11,%r8
  4027f9:	4d 89 c1             	mov    %r8,%r9
  4027fc:	4d 89 ca             	mov    %r9,%r10
  4027ff:	4d 89 d3             	mov    %r10,%r11
  402802:	4d 89 d8             	mov    %r11,%r8
  402805:	4d 89 c1             	mov    %r8,%r9
  402808:	4d 89 ca             	mov    %r9,%r10
  40280b:	4d 89 d3             	mov    %r10,%r11
  40280e:	4d 89 d8             	mov    %r11,%r8
  402811:	4d 89 c1             	mov    %r8,%r9
  402814:	4d 89 ca             	mov    %r9,%r10
  402817:	4d 89 d3             	mov    %r10,%r11
  40281a:	4d 89 d8             	mov    %r11,%r8
  40281d:	4d 89 c1             	mov    %r8,%r9
  402820:	4d 89 ca             	mov    %r9,%r10
  402823:	4d 89 d3             	mov    %r10,%r11
  402826:	4d 89 d8             	mov    %r11,%r8
  402829:	4d 89 c1             	mov    %r8,%r9
  40282c:	4d 89 ca             	mov    %r9,%r10
  40282f:	4d 89 d3             	mov    %r10,%r11
  402832:	4d 89 d8             	mov    %r11,%r8
  402835:	4d 89 c1             	mov    %r8,%r9
  402838:	4d 89 ca             	mov    %r9,%r10
  40283b:	4d 89 d3             	mov    %r10,%r11
  40283e:	4d 89 d8             	mov    %r11,%r8
  402841:	4d 89 c1             	mov    %r8,%r9
  402844:	4d 89 ca             	mov    %r9,%r10
  402847:	4d 89 d3             	mov    %r10,%r11
  40284a:	4d 89 d8             	mov    %r11,%r8
  40284d:	4d 89 c1             	mov    %r8,%r9
  402850:	4d 89 ca             	mov    %r9,%r10
  402853:	4d 89 d3             	mov    %r10,%r11
  402856:	4d 89 d8             	mov    %r11,%r8
  402859:	4d 89 c1             	mov    %r8,%r9
  40285c:	4d 89 ca             	mov    %r9,%r10
  40285f:	4d 89 d3             	mov    %r10,%r11
  402862:	4d 89 d8             	mov    %r11,%r8
  402865:	4d 89 c1             	mov    %r8,%r9
  402868:	4d 89 ca             	mov    %r9,%r10
  40286b:	4d 89 d3             	mov    %r10,%r11
  40286e:	4d 89 d8             	mov    %r11,%r8
  402871:	4d 89 c1             	mov    %r8,%r9
  402874:	4d 89 ca             	mov    %r9,%r10
  402877:	4d 89 d3             	mov    %r10,%r11
  40287a:	4d 89 d8             	mov    %r11,%r8
  40287d:	4d 89 c1             	mov    %r8,%r9
  402880:	4d 89 ca             	mov    %r9,%r10
  402883:	4d 89 d3             	mov    %r10,%r11
  402886:	4d 89 d8             	mov    %r11,%r8
  402889:	4d 89 c1             	mov    %r8,%r9
  40288c:	4d 89 ca             	mov    %r9,%r10
  40288f:	4d 89 d3             	mov    %r10,%r11
  402892:	4d 89 d8             	mov    %r11,%r8
  402895:	4d 89 c1             	mov    %r8,%r9
  402898:	4d 89 ca             	mov    %r9,%r10
  40289b:	4d 89 d3             	mov    %r10,%r11
  40289e:	4d 89 d8             	mov    %r11,%r8
  4028a1:	4d 89 c1             	mov    %r8,%r9
  4028a4:	4d 89 ca             	mov    %r9,%r10
  4028a7:	4d 89 d3             	mov    %r10,%r11
  4028aa:	4d 89 d8             	mov    %r11,%r8
  4028ad:	4d 89 c1             	mov    %r8,%r9
  4028b0:	4d 89 ca             	mov    %r9,%r10
  4028b3:	4d 89 d3             	mov    %r10,%r11
  4028b6:	4d 89 d8             	mov    %r11,%r8
  4028b9:	4d 89 c1             	mov    %r8,%r9
  4028bc:	4d 89 ca             	mov    %r9,%r10
  4028bf:	4d 89 d3             	mov    %r10,%r11
  4028c2:	4d 89 d8             	mov    %r11,%r8
  4028c5:	4d 89 c1             	mov    %r8,%r9
  4028c8:	4d 89 ca             	mov    %r9,%r10
  4028cb:	4d 89 d3             	mov    %r10,%r11
  4028ce:	4d 89 d8             	mov    %r11,%r8
  4028d1:	0f 01 f9             	rdtscp 
  4028d4:	48 c1 e0 20          	shl    $0x20,%rax
  4028d8:	89 f6                	mov    %esi,%esi
  4028da:	89 4c 24 0c          	mov    %ecx,0xc(%rsp)
  4028de:	48 83 c7 08          	add    $0x8,%rdi
  4028e2:	48 09 f0             	or     %rsi,%rax
  4028e5:	48 89 47 f8          	mov    %rax,-0x8(%rdi)
  4028e9:	48 39 df             	cmp    %rbx,%rdi
  4028ec:	0f 85 ce e7 ff ff    	jne    4010c0 <main+0x30>
  4028f2:	be 27 30 40 00       	mov    $0x403027,%esi
  4028f7:	bf 2a 30 40 00       	mov    $0x40302a,%edi
  4028fc:	e8 6f e7 ff ff       	callq  401070 <fopen@plt>
  402901:	49 89 c4             	mov    %rax,%r12
  402904:	48 85 c0             	test   %rax,%rax
  402907:	74 49                	je     402952 <main+0x18c2>
  402909:	48 89 c1             	mov    %rax,%rcx
  40290c:	ba 00 00 01 00       	mov    $0x10000,%edx
  402911:	be 08 00 00 00       	mov    $0x8,%esi
  402916:	48 89 ef             	mov    %rbp,%rdi
  402919:	e8 62 e7 ff ff       	callq  401080 <fwrite@plt>
  40291e:	4c 89 e7             	mov    %r12,%rdi
  402921:	e8 1a e7 ff ff       	callq  401040 <fclose@plt>
  402926:	48 89 ef             	mov    %rbp,%rdi
  402929:	e8 02 e7 ff ff       	callq  401030 <free@plt>
  40292e:	48 83 c4 10          	add    $0x10,%rsp
  402932:	31 c0                	xor    %eax,%eax
  402934:	5b                   	pop    %rbx
  402935:	5d                   	pop    %rbp
  402936:	41 5c                	pop    %r12
  402938:	c3                   	retq   
  402939:	b9 41 30 40 00       	mov    $0x403041,%ecx
  40293e:	ba 2e 00 00 00       	mov    $0x2e,%edx
  402943:	be 10 30 40 00       	mov    $0x403010,%esi
  402948:	bf 1b 30 40 00       	mov    $0x40301b,%edi
  40294d:	e8 fe e6 ff ff       	callq  401050 <__assert_fail@plt>
  402952:	b9 41 30 40 00       	mov    $0x403041,%ecx
  402957:	ba 33 00 00 00       	mov    $0x33,%edx
  40295c:	be 10 30 40 00       	mov    $0x403010,%esi
  402961:	bf 36 30 40 00       	mov    $0x403036,%edi
  402966:	e8 e5 e6 ff ff       	callq  401050 <__assert_fail@plt>
  40296b:	0f 1f 44 00 00       	nopl   0x0(%rax,%rax,1)

0000000000402970 <_start>:
  402970:	f3 0f 1e fa          	endbr64 
  402974:	31 ed                	xor    %ebp,%ebp
  402976:	49 89 d1             	mov    %rdx,%r9
  402979:	5e                   	pop    %rsi
  40297a:	48 89 e2             	mov    %rsp,%rdx
  40297d:	48 83 e4 f0          	and    $0xfffffffffffffff0,%rsp
  402981:	50                   	push   %rax
  402982:	54                   	push   %rsp
  402983:	45 31 c0             	xor    %r8d,%r8d
  402986:	31 c9                	xor    %ecx,%ecx
  402988:	48 c7 c7 90 10 40 00 	mov    $0x401090,%rdi
  40298f:	ff 15 4b 26 00 00    	callq  *0x264b(%rip)        # 404fe0 <__libc_start_main@GLIBC_2.34>
  402995:	f4                   	hlt    
  402996:	66 2e 0f 1f 84 00 00 	nopw   %cs:0x0(%rax,%rax,1)
  40299d:	00 00 00 

00000000004029a0 <_dl_relocate_static_pie>:
  4029a0:	f3 0f 1e fa          	endbr64 
  4029a4:	c3                   	retq   
  4029a5:	66 2e 0f 1f 84 00 00 	nopw   %cs:0x0(%rax,%rax,1)
  4029ac:	00 00 00 
  4029af:	90                   	nop

00000000004029b0 <deregister_tm_clones>:
  4029b0:	48 8d 3d 99 26 00 00 	lea    0x2699(%rip),%rdi        # 405050 <__TMC_END__>
  4029b7:	48 8d 05 92 26 00 00 	lea    0x2692(%rip),%rax        # 405050 <__TMC_END__>
  4029be:	48 39 f8             	cmp    %rdi,%rax
  4029c1:	74 15                	je     4029d8 <deregister_tm_clones+0x28>
  4029c3:	48 8b 05 1e 26 00 00 	mov    0x261e(%rip),%rax        # 404fe8 <_ITM_deregisterTMCloneTable>
  4029ca:	48 85 c0             	test   %rax,%rax
  4029cd:	74 09                	je     4029d8 <deregister_tm_clones+0x28>
  4029cf:	ff e0                	jmpq   *%rax
  4029d1:	0f 1f 80 00 00 00 00 	nopl   0x0(%rax)
  4029d8:	c3                   	retq   
  4029d9:	0f 1f 80 00 00 00 00 	nopl   0x0(%rax)

00000000004029e0 <register_tm_clones>:
  4029e0:	48 8d 3d 69 26 00 00 	lea    0x2669(%rip),%rdi        # 405050 <__TMC_END__>
  4029e7:	48 8d 35 62 26 00 00 	lea    0x2662(%rip),%rsi        # 405050 <__TMC_END__>
  4029ee:	48 29 fe             	sub    %rdi,%rsi
  4029f1:	48 89 f0             	mov    %rsi,%rax
  4029f4:	48 c1 ee 3f          	shr    $0x3f,%rsi
  4029f8:	48 c1 f8 03          	sar    $0x3,%rax
  4029fc:	48 01 c6             	add    %rax,%rsi
  4029ff:	48 d1 fe             	sar    %rsi
  402a02:	74 14                	je     402a18 <register_tm_clones+0x38>
  402a04:	48 8b 05 ed 25 00 00 	mov    0x25ed(%rip),%rax        # 404ff8 <_ITM_registerTMCloneTable>
  402a0b:	48 85 c0             	test   %rax,%rax
  402a0e:	74 08                	je     402a18 <register_tm_clones+0x38>
  402a10:	ff e0                	jmpq   *%rax
  402a12:	66 0f 1f 44 00 00    	nopw   0x0(%rax,%rax,1)
  402a18:	c3                   	retq   
  402a19:	0f 1f 80 00 00 00 00 	nopl   0x0(%rax)

0000000000402a20 <__do_global_dtors_aux>:
  402a20:	f3 0f 1e fa          	endbr64 
  402a24:	80 3d 21 26 00 00 00 	cmpb   $0x0,0x2621(%rip)        # 40504c <completed.0>
  402a2b:	75 13                	jne    402a40 <__do_global_dtors_aux+0x20>
  402a2d:	55                   	push   %rbp
  402a2e:	48 89 e5             	mov    %rsp,%rbp
  402a31:	e8 7a ff ff ff       	callq  4029b0 <deregister_tm_clones>
  402a36:	c6 05 0f 26 00 00 01 	movb   $0x1,0x260f(%rip)        # 40504c <completed.0>
  402a3d:	5d                   	pop    %rbp
  402a3e:	c3                   	retq   
  402a3f:	90                   	nop
  402a40:	c3                   	retq   
  402a41:	66 66 2e 0f 1f 84 00 	data16 nopw %cs:0x0(%rax,%rax,1)
  402a48:	00 00 00 00 
  402a4c:	0f 1f 40 00          	nopl   0x0(%rax)

0000000000402a50 <frame_dummy>:
  402a50:	f3 0f 1e fa          	endbr64 
  402a54:	eb 8a                	jmp    4029e0 <register_tm_clones>

Disassembly of section .fini:

0000000000402a58 <_fini>:
  402a58:	f3 0f 1e fa          	endbr64 
  402a5c:	48 83 ec 08          	sub    $0x8,%rsp
  402a60:	48 83 c4 08          	add    $0x8,%rsp
  402a64:	c3                   	retq   
